
test.elf:     file format elf32-littleriscv


Disassembly of section .text:

00000000 <_start>:
       0:	0140006f          	jal	x0,14 <reset_handler>
       4:	0680006f          	jal	x0,6c <ecall_handler>
       8:	0680006f          	jal	x0,70 <illegal_inst_handler>
       c:	0680006f          	jal	x0,74 <interrupt_handler>
      10:	0620006f          	jal	x0,72 <mem_fault_handler>

00000014 <reset_handler>:
      14:	4081                	c.li	x1,0
      16:	4101                	c.li	x2,0
      18:	4181                	c.li	x3,0
      1a:	4201                	c.li	x4,0
      1c:	4281                	c.li	x5,0
      1e:	4301                	c.li	x6,0
      20:	4381                	c.li	x7,0
      22:	4401                	c.li	x8,0
      24:	4481                	c.li	x9,0
      26:	4501                	c.li	x10,0
      28:	4581                	c.li	x11,0
      2a:	4601                	c.li	x12,0
      2c:	4681                	c.li	x13,0
      2e:	4701                	c.li	x14,0
      30:	4781                	c.li	x15,0
      32:	00000197          	auipc	x3,0x0
      36:	fce18193          	addi	x3,x3,-50 # 0 <_start>
      3a:	00100117          	auipc	x2,0x100
      3e:	fc210113          	addi	x2,x2,-62 # ffffc <_stack_start>
      42:	00006717          	auipc	x14,0x6
      46:	66670713          	addi	x14,x14,1638 # 66a8 <_bss_start>
      4a:	00006797          	auipc	x15,0x6
      4e:	6c278793          	addi	x15,x15,1730 # 670c <_bss_end>
      52:	00f75763          	bge	x14,x15,60 <zero_loop_end>

00000056 <zero_loop>:
      56:	00072023          	sw	x0,0(x14)
      5a:	0711                	c.addi	x14,4
      5c:	fee7dde3          	bge	x15,x14,56 <zero_loop>

00000060 <zero_loop_end>:
      60:	345040ef          	jal	x1,4ba4 <__libc_init_array>
      64:	444050ef          	jal	x1,54a8 <__DTOR_END__>
      68:	9002                	c.ebreak

0000006a <_fini>:
      6a:	8082                	c.jr	x1

0000006c <ecall_handler>:
      6c:	30200073          	mret

00000070 <illegal_inst_handler>:
      70:	a001                	c.j	70 <illegal_inst_handler>

00000072 <mem_fault_handler>:
      72:	a001                	c.j	72 <mem_fault_handler>

00000074 <interrupt_handler>:
      74:	30200073          	mret

00000078 <calc_func>:
      78:	00051303          	lh	x6,0(x10)
      7c:	1131                	c.addi	x2,-20
      7e:	c426                	c.swsp	x9,8(x2)
      80:	40735793          	srai	x15,x6,0x7
      84:	c806                	c.swsp	x1,16(x2)
      86:	c622                	c.swsp	x8,12(x2)
      88:	8b85                	c.andi	x15,1
      8a:	07f37493          	andi	x9,x6,127
      8e:	e7b9                	c.bnez	x15,dc <calc_func+0x64>
      90:	842e                	c.mv	x8,x11
      92:	40335593          	srai	x11,x6,0x3
      96:	89bd                	c.andi	x11,15
      98:	00459793          	slli	x15,x11,0x4
      9c:	c02a                	c.swsp	x10,0(x2)
      9e:	00737713          	andi	x14,x6,7
      a2:	8ddd                	c.or	x11,x15
      a4:	03845783          	lhu	x15,56(x8)
      a8:	c321                	c.beqz	x14,e8 <calc_func+0x70>
      aa:	4685                	c.li	x13,1
      ac:	06d70c63          	beq	x14,x13,124 <calc_func+0xac>
      b0:	01031513          	slli	x10,x6,0x10
      b4:	8141                	c.srli	x10,0x10
      b6:	849a                	c.mv	x9,x6
      b8:	85be                	c.mv	x11,x15
      ba:	c21a                	c.swsp	x6,4(x2)
      bc:	265010ef          	jal	x1,1b20 <crcu16>
      c0:	4312                	c.lwsp	x6,4(x2)
      c2:	07f4f493          	andi	x9,x9,127
      c6:	4782                	c.lwsp	x15,0(x2)
      c8:	f0037313          	andi	x6,x6,-256
      cc:	0064e333          	or	x6,x9,x6
      d0:	02a41c23          	sh	x10,56(x8)
      d4:	08036313          	ori	x6,x6,128
      d8:	00679023          	sh	x6,0(x15)
      dc:	40c2                	c.lwsp	x1,16(x2)
      de:	4432                	c.lwsp	x8,12(x2)
      e0:	8526                	c.mv	x10,x9
      e2:	44a2                	c.lwsp	x9,8(x2)
      e4:	0151                	c.addi	x2,20
      e6:	8082                	c.jr	x1
      e8:	02200693          	addi	x13,x0,34
      ec:	872e                	c.mv	x14,x11
      ee:	00d5d463          	bge	x11,x13,f6 <calc_func+0x7e>
      f2:	02200713          	addi	x14,x0,34
      f6:	00241683          	lh	x13,2(x8)
      fa:	00041603          	lh	x12,0(x8)
      fe:	484c                	c.lw	x11,20(x8)
     100:	4c08                	c.lw	x10,24(x8)
     102:	0ff77713          	andi	x14,x14,255
     106:	c21a                	c.swsp	x6,4(x2)
     108:	7dc010ef          	jal	x1,18e4 <core_bench_state>
     10c:	03e45783          	lhu	x15,62(x8)
     110:	01051493          	slli	x9,x10,0x10
     114:	84c1                	c.srai	x9,0x10
     116:	4312                	c.lwsp	x6,4(x2)
     118:	e399                	c.bnez	x15,11e <calc_func+0xa6>
     11a:	02a41f23          	sh	x10,62(x8)
     11e:	03845783          	lhu	x15,56(x8)
     122:	bf59                	c.j	b8 <calc_func+0x40>
     124:	863e                	c.mv	x12,x15
     126:	02840513          	addi	x10,x8,40
     12a:	c21a                	c.swsp	x6,4(x2)
     12c:	761000ef          	jal	x1,108c <core_bench_matrix>
     130:	03c45783          	lhu	x15,60(x8)
     134:	01051493          	slli	x9,x10,0x10
     138:	84c1                	c.srai	x9,0x10
     13a:	4312                	c.lwsp	x6,4(x2)
     13c:	f3ed                	c.bnez	x15,11e <calc_func+0xa6>
     13e:	03845783          	lhu	x15,56(x8)
     142:	02a41e23          	sh	x10,60(x8)
     146:	bf8d                	c.j	b8 <calc_func+0x40>

00000148 <cmp_complex>:
     148:	00051303          	lh	x6,0(x10)
     14c:	1121                	c.addi	x2,-24
     14e:	c822                	c.swsp	x8,16(x2)
     150:	40735793          	srai	x15,x6,0x7
     154:	c626                	c.swsp	x9,12(x2)
     156:	ca06                	c.swsp	x1,20(x2)
     158:	c02e                	c.swsp	x11,0(x2)
     15a:	8b85                	c.andi	x15,1
     15c:	84b2                	c.mv	x9,x12
     15e:	07f37413          	andi	x8,x6,127
     162:	e7b9                	c.bnez	x15,1b0 <cmp_complex+0x68>
     164:	40335593          	srai	x11,x6,0x3
     168:	89bd                	c.andi	x11,15
     16a:	00459793          	slli	x15,x11,0x4
     16e:	00737713          	andi	x14,x6,7
     172:	8ddd                	c.or	x11,x15
     174:	83aa                	c.mv	x7,x10
     176:	03865783          	lhu	x15,56(x12)
     17a:	c75d                	c.beqz	x14,228 <cmp_complex+0xe0>
     17c:	4685                	c.li	x13,1
     17e:	12d70463          	beq	x14,x13,2a6 <cmp_complex+0x15e>
     182:	01031513          	slli	x10,x6,0x10
     186:	8141                	c.srli	x10,0x10
     188:	841a                	c.mv	x8,x6
     18a:	85be                	c.mv	x11,x15
     18c:	c41e                	c.swsp	x7,8(x2)
     18e:	c21a                	c.swsp	x6,4(x2)
     190:	191010ef          	jal	x1,1b20 <crcu16>
     194:	4312                	c.lwsp	x6,4(x2)
     196:	07f47413          	andi	x8,x8,127
     19a:	43a2                	c.lwsp	x7,8(x2)
     19c:	f0037313          	andi	x6,x6,-256
     1a0:	00646333          	or	x6,x8,x6
     1a4:	02a49c23          	sh	x10,56(x9)
     1a8:	08036313          	ori	x6,x6,128
     1ac:	00639023          	sh	x6,0(x7)
     1b0:	4782                	c.lwsp	x15,0(x2)
     1b2:	00079303          	lh	x6,0(x15)
     1b6:	40735793          	srai	x15,x6,0x7
     1ba:	8b85                	c.andi	x15,1
     1bc:	efa9                	c.bnez	x15,216 <cmp_complex+0xce>
     1be:	40335593          	srai	x11,x6,0x3
     1c2:	89bd                	c.andi	x11,15
     1c4:	00459793          	slli	x15,x11,0x4
     1c8:	00737713          	andi	x14,x6,7
     1cc:	8ddd                	c.or	x11,x15
     1ce:	0384d783          	lhu	x15,56(x9)
     1d2:	cb59                	c.beqz	x14,268 <cmp_complex+0x120>
     1d4:	4685                	c.li	x13,1
     1d6:	0ed70c63          	beq	x14,x13,2ce <cmp_complex+0x186>
     1da:	01031513          	slli	x10,x6,0x10
     1de:	8141                	c.srli	x10,0x10
     1e0:	c41a                	c.swsp	x6,8(x2)
     1e2:	85be                	c.mv	x11,x15
     1e4:	c21a                	c.swsp	x6,4(x2)
     1e6:	13b010ef          	jal	x1,1b20 <crcu16>
     1ea:	47a2                	c.lwsp	x15,8(x2)
     1ec:	4312                	c.lwsp	x6,4(x2)
     1ee:	4702                	c.lwsp	x14,0(x2)
     1f0:	07f7f793          	andi	x15,x15,127
     1f4:	f0037313          	andi	x6,x6,-256
     1f8:	02a49c23          	sh	x10,56(x9)
     1fc:	40d2                	c.lwsp	x1,20(x2)
     1fe:	40f40533          	sub	x10,x8,x15
     202:	0067e333          	or	x6,x15,x6
     206:	4442                	c.lwsp	x8,16(x2)
     208:	08036313          	ori	x6,x6,128
     20c:	00671023          	sh	x6,0(x14)
     210:	44b2                	c.lwsp	x9,12(x2)
     212:	0161                	c.addi	x2,24
     214:	8082                	c.jr	x1
     216:	07f37793          	andi	x15,x6,127
     21a:	40f40533          	sub	x10,x8,x15
     21e:	40d2                	c.lwsp	x1,20(x2)
     220:	4442                	c.lwsp	x8,16(x2)
     222:	44b2                	c.lwsp	x9,12(x2)
     224:	0161                	c.addi	x2,24
     226:	8082                	c.jr	x1
     228:	02200693          	addi	x13,x0,34
     22c:	872e                	c.mv	x14,x11
     22e:	00d5d463          	bge	x11,x13,236 <cmp_complex+0xee>
     232:	02200713          	addi	x14,x0,34
     236:	00249683          	lh	x13,2(x9)
     23a:	00049603          	lh	x12,0(x9)
     23e:	48cc                	c.lw	x11,20(x9)
     240:	4c88                	c.lw	x10,24(x9)
     242:	0ff77713          	andi	x14,x14,255
     246:	c41e                	c.swsp	x7,8(x2)
     248:	c21a                	c.swsp	x6,4(x2)
     24a:	69a010ef          	jal	x1,18e4 <core_bench_state>
     24e:	03e4d783          	lhu	x15,62(x9)
     252:	01051413          	slli	x8,x10,0x10
     256:	8441                	c.srai	x8,0x10
     258:	4312                	c.lwsp	x6,4(x2)
     25a:	43a2                	c.lwsp	x7,8(x2)
     25c:	e399                	c.bnez	x15,262 <cmp_complex+0x11a>
     25e:	02a49f23          	sh	x10,62(x9)
     262:	0384d783          	lhu	x15,56(x9)
     266:	b715                	c.j	18a <cmp_complex+0x42>
     268:	02200693          	addi	x13,x0,34
     26c:	872e                	c.mv	x14,x11
     26e:	00d5d463          	bge	x11,x13,276 <cmp_complex+0x12e>
     272:	02200713          	addi	x14,x0,34
     276:	00249683          	lh	x13,2(x9)
     27a:	00049603          	lh	x12,0(x9)
     27e:	48cc                	c.lw	x11,20(x9)
     280:	4c88                	c.lw	x10,24(x9)
     282:	0ff77713          	andi	x14,x14,255
     286:	c21a                	c.swsp	x6,4(x2)
     288:	65c010ef          	jal	x1,18e4 <core_bench_state>
     28c:	01051713          	slli	x14,x10,0x10
     290:	03e4d783          	lhu	x15,62(x9)
     294:	8741                	c.srai	x14,0x10
     296:	c43a                	c.swsp	x14,8(x2)
     298:	4312                	c.lwsp	x6,4(x2)
     29a:	e399                	c.bnez	x15,2a0 <cmp_complex+0x158>
     29c:	02a49f23          	sh	x10,62(x9)
     2a0:	0384d783          	lhu	x15,56(x9)
     2a4:	bf3d                	c.j	1e2 <cmp_complex+0x9a>
     2a6:	c42a                	c.swsp	x10,8(x2)
     2a8:	863e                	c.mv	x12,x15
     2aa:	02848513          	addi	x10,x9,40
     2ae:	c21a                	c.swsp	x6,4(x2)
     2b0:	5dd000ef          	jal	x1,108c <core_bench_matrix>
     2b4:	03c4d783          	lhu	x15,60(x9)
     2b8:	01051413          	slli	x8,x10,0x10
     2bc:	8441                	c.srai	x8,0x10
     2be:	4312                	c.lwsp	x6,4(x2)
     2c0:	43a2                	c.lwsp	x7,8(x2)
     2c2:	f3c5                	c.bnez	x15,262 <cmp_complex+0x11a>
     2c4:	0384d783          	lhu	x15,56(x9)
     2c8:	02a49e23          	sh	x10,60(x9)
     2cc:	bd7d                	c.j	18a <cmp_complex+0x42>
     2ce:	863e                	c.mv	x12,x15
     2d0:	02848513          	addi	x10,x9,40
     2d4:	c21a                	c.swsp	x6,4(x2)
     2d6:	5b7000ef          	jal	x1,108c <core_bench_matrix>
     2da:	01051713          	slli	x14,x10,0x10
     2de:	03c4d783          	lhu	x15,60(x9)
     2e2:	8741                	c.srai	x14,0x10
     2e4:	c43a                	c.swsp	x14,8(x2)
     2e6:	4312                	c.lwsp	x6,4(x2)
     2e8:	ffc5                	c.bnez	x15,2a0 <cmp_complex+0x158>
     2ea:	0384d783          	lhu	x15,56(x9)
     2ee:	02a49e23          	sh	x10,60(x9)
     2f2:	bdc5                	c.j	1e2 <cmp_complex+0x9a>

000002f4 <cmp_idx>:
     2f4:	c619                	c.beqz	x12,302 <cmp_idx+0xe>
     2f6:	00251503          	lh	x10,2(x10)
     2fa:	00259783          	lh	x15,2(x11)
     2fe:	8d1d                	c.sub	x10,x15
     300:	8082                	c.jr	x1
     302:	00051783          	lh	x15,0(x10)
     306:	01079713          	slli	x14,x15,0x10
     30a:	8341                	c.srli	x14,0x10
     30c:	8321                	c.srli	x14,0x8
     30e:	f007f793          	andi	x15,x15,-256
     312:	8fd9                	c.or	x15,x14
     314:	00f51023          	sh	x15,0(x10)
     318:	00059783          	lh	x15,0(x11)
     31c:	00251503          	lh	x10,2(x10)
     320:	01079713          	slli	x14,x15,0x10
     324:	8341                	c.srli	x14,0x10
     326:	8321                	c.srli	x14,0x8
     328:	f007f793          	andi	x15,x15,-256
     32c:	8fd9                	c.or	x15,x14
     32e:	00f59023          	sh	x15,0(x11)
     332:	00259783          	lh	x15,2(x11)
     336:	8d1d                	c.sub	x10,x15
     338:	8082                	c.jr	x1

0000033a <copy_info>:
     33a:	00059703          	lh	x14,0(x11)
     33e:	00259783          	lh	x15,2(x11)
     342:	00e51023          	sh	x14,0(x10)
     346:	00f51123          	sh	x15,2(x10)
     34a:	8082                	c.jr	x1

0000034c <core_bench_list>:
     34c:	82aa                	c.mv	x5,x10
     34e:	00451503          	lh	x10,4(x10)
     352:	fb810113          	addi	x2,x2,-72
     356:	c0a2                	c.swsp	x8,64(x2)
     358:	c286                	c.swsp	x1,68(x2)
     35a:	de26                	c.swsp	x9,60(x2)
     35c:	da02                	c.swsp	x0,52(x2)
     35e:	842e                	c.mv	x8,x11
     360:	0242a383          	lw	x7,36(x5)
     364:	26a05163          	bge	x0,x10,5c6 <_min_stack+0x1ca>
     368:	c016                	c.swsp	x5,0(x2)
     36a:	4581                	c.li	x11,0
     36c:	4481                	c.li	x9,0
     36e:	4301                	c.li	x6,0
     370:	4601                	c.li	x12,0
     372:	82a2                	c.mv	x5,x8
     374:	c222                	c.swsp	x8,4(x2)
     376:	0ff5f413          	andi	x8,x11,255
     37a:	1a02c263          	blt	x5,x0,51e <_min_stack+0x122>
     37e:	4c038263          	beq	x7,x0,842 <_min_stack+0x446>
     382:	0043a703          	lw	x14,4(x7)
     386:	879e                	c.mv	x15,x7
     388:	00271703          	lh	x14,2(x14)
     38c:	00571863          	bne	x14,x5,39c <core_bench_list+0x50>
     390:	a801                	c.j	3a0 <core_bench_list+0x54>
     392:	43d8                	c.lw	x14,4(x15)
     394:	00271703          	lh	x14,2(x14)
     398:	00570463          	beq	x14,x5,3a0 <core_bench_list+0x54>
     39c:	439c                	c.lw	x15,0(x15)
     39e:	fbf5                	c.bnez	x15,392 <core_bench_list+0x46>
     3a0:	4681                	c.li	x13,0
     3a2:	a019                	c.j	3a8 <core_bench_list+0x5c>
     3a4:	869e                	c.mv	x13,x7
     3a6:	83ba                	c.mv	x7,x14
     3a8:	0003a703          	lw	x14,0(x7)
     3ac:	00d3a023          	sw	x13,0(x7)
     3b0:	fb75                	c.bnez	x14,3a4 <core_bench_list+0x58>
     3b2:	18078863          	beq	x15,x0,542 <_min_stack+0x146>
     3b6:	43d8                	c.lw	x14,4(x15)
     3b8:	0305                	c.addi	x6,1
     3ba:	0342                	c.slli	x6,0x10
     3bc:	00071703          	lh	x14,0(x14)
     3c0:	01035313          	srli	x6,x6,0x10
     3c4:	00177693          	andi	x13,x14,1
     3c8:	c691                	c.beqz	x13,3d4 <core_bench_list+0x88>
     3ca:	8725                	c.srai	x14,0x9
     3cc:	8b05                	c.andi	x14,1
     3ce:	963a                	c.add	x12,x14
     3d0:	0642                	c.slli	x12,0x10
     3d2:	8241                	c.srli	x12,0x10
     3d4:	4398                	c.lw	x14,0(x15)
     3d6:	cb01                	c.beqz	x14,3e6 <core_bench_list+0x9a>
     3d8:	4314                	c.lw	x13,0(x14)
     3da:	c394                	c.sw	x13,0(x15)
     3dc:	0003a783          	lw	x15,0(x7)
     3e0:	c31c                	c.sw	x15,0(x14)
     3e2:	00e3a023          	sw	x14,0(x7)
     3e6:	0002c663          	blt	x5,x0,3f2 <core_bench_list+0xa6>
     3ea:	0285                	c.addi	x5,1
     3ec:	02c2                	c.slli	x5,0x10
     3ee:	4102d293          	srai	x5,x5,0x10
     3f2:	0585                	c.addi	x11,1
     3f4:	05c2                	c.slli	x11,0x10
     3f6:	85c1                	c.srai	x11,0x10
     3f8:	f6b51fe3          	bne	x10,x11,376 <core_bench_list+0x2a>
     3fc:	030a                	c.slli	x6,0x2
     3fe:	409307b3          	sub	x15,x6,x9
     402:	97b2                	c.add	x15,x12
     404:	da22                	c.swsp	x8,52(x2)
     406:	07c2                	c.slli	x15,0x10
     408:	4412                	c.lwsp	x8,4(x2)
     40a:	83c1                	c.srli	x15,0x10
     40c:	dc16                	c.swsp	x5,56(x2)
     40e:	d83e                	c.swsp	x15,48(x2)
     410:	4282                	c.lwsp	x5,0(x2)
     412:	1c804063          	blt	x0,x8,5d2 <_min_stack+0x1d6>
     416:	0003a703          	lw	x14,0(x7)
     41a:	849e                	c.mv	x9,x7
     41c:	431c                	c.lw	x15,0(x14)
     41e:	4354                	c.lw	x13,4(x14)
     420:	43cc                	c.lw	x11,4(x15)
     422:	4390                	c.lw	x12,0(x15)
     424:	c03e                	c.swsp	x15,0(x2)
     426:	c34c                	c.sw	x11,4(x14)
     428:	c3d4                	c.sw	x13,4(x15)
     42a:	c310                	c.sw	x12,0(x14)
     42c:	0007a023          	sw	x0,0(x15)
     430:	57e2                	c.lwsp	x15,56(x2)
     432:	873e                	c.mv	x14,x15
     434:	1607cc63          	blt	x15,x0,5ac <_min_stack+0x1b0>
     438:	40dc                	c.lw	x15,4(x9)
     43a:	00279783          	lh	x15,2(x15)
     43e:	00e78863          	beq	x15,x14,44e <_min_stack+0x52>
     442:	4084                	c.lw	x9,0(x9)
     444:	f8f5                	c.bnez	x9,438 <_min_stack+0x3c>
     446:	0003a483          	lw	x9,0(x7)
     44a:	3e048663          	beq	x9,x0,836 <_min_stack+0x43a>
     44e:	55c2                	c.lwsp	x11,48(x2)
     450:	841e                	c.mv	x8,x7
     452:	405c                	c.lw	x15,4(x8)
     454:	00079503          	lh	x10,0(x15)
     458:	31f010ef          	jal	x1,1f76 <crc16>
     45c:	4084                	c.lw	x9,0(x9)
     45e:	85aa                	c.mv	x11,x10
     460:	f8ed                	c.bnez	x9,452 <_min_stack+0x56>
     462:	4782                	c.lwsp	x15,0(x2)
     464:	4004                	c.lw	x9,0(x8)
     466:	83a2                	c.mv	x7,x8
     468:	43d4                	c.lw	x13,4(x15)
     46a:	d82a                	c.swsp	x10,48(x2)
     46c:	40d0                	c.lw	x12,4(x9)
     46e:	4098                	c.lw	x14,0(x9)
     470:	4405                	c.li	x8,1
     472:	c3d0                	c.sw	x12,4(x15)
     474:	c0d4                	c.sw	x13,4(x9)
     476:	c398                	c.sw	x14,0(x15)
     478:	c09c                	c.sw	x15,0(x9)
     47a:	c402                	c.swsp	x0,8(x2)
     47c:	4481                	c.li	x9,0
     47e:	c002                	c.swsp	x0,0(x2)
     480:	4782                	c.lwsp	x15,0(x2)
     482:	869e                	c.mv	x13,x7
     484:	0785                	c.addi	x15,1
     486:	c03e                	c.swsp	x15,0(x2)
     488:	4781                	c.li	x15,0
     48a:	4294                	c.lw	x13,0(x13)
     48c:	0785                	c.addi	x15,1
     48e:	c681                	c.beqz	x13,496 <_min_stack+0x9a>
     490:	fef41de3          	bne	x8,x15,48a <_min_stack+0x8e>
     494:	87a2                	c.mv	x15,x8
     496:	871e                	c.mv	x14,x7
     498:	8622                	c.mv	x12,x8
     49a:	83b6                	c.mv	x7,x13
     49c:	c7b5                	c.beqz	x15,508 <_min_stack+0x10c>
     49e:	ce4d                	c.beqz	x12,558 <_min_stack+0x15c>
     4a0:	0a038c63          	beq	x7,x0,558 <_min_stack+0x15c>
     4a4:	00472303          	lw	x6,4(x14)
     4a8:	0043a503          	lw	x10,4(x7)
     4ac:	00031683          	lh	x13,0(x6)
     4b0:	00231583          	lh	x11,2(x6)
     4b4:	01069293          	slli	x5,x13,0x10
     4b8:	0102d293          	srli	x5,x5,0x10
     4bc:	f006f693          	andi	x13,x13,-256
     4c0:	0082d293          	srli	x5,x5,0x8
     4c4:	0056e6b3          	or	x13,x13,x5
     4c8:	c22e                	c.swsp	x11,4(x2)
     4ca:	00251583          	lh	x11,2(x10)
     4ce:	00d31023          	sh	x13,0(x6)
     4d2:	00051683          	lh	x13,0(x10)
     4d6:	4312                	c.lwsp	x6,4(x2)
     4d8:	40b305b3          	sub	x11,x6,x11
     4dc:	01069313          	slli	x6,x13,0x10
     4e0:	01035313          	srli	x6,x6,0x10
     4e4:	f006f693          	andi	x13,x13,-256
     4e8:	00835313          	srli	x6,x6,0x8
     4ec:	0066e6b3          	or	x13,x13,x6
     4f0:	00d51023          	sh	x13,0(x10)
     4f4:	06b05263          	bge	x0,x11,558 <_min_stack+0x15c>
     4f8:	869e                	c.mv	x13,x7
     4fa:	0003a383          	lw	x7,0(x7)
     4fe:	167d                	c.addi	x12,-1
     500:	cc81                	c.beqz	x9,518 <_min_stack+0x11c>
     502:	c094                	c.sw	x13,0(x9)
     504:	84b6                	c.mv	x9,x13
     506:	ffc1                	c.bnez	x15,49e <_min_stack+0xa2>
     508:	ce21                	c.beqz	x12,560 <_min_stack+0x164>
     50a:	04038d63          	beq	x7,x0,564 <_min_stack+0x168>
     50e:	869e                	c.mv	x13,x7
     510:	167d                	c.addi	x12,-1
     512:	0003a383          	lw	x7,0(x7)
     516:	f4f5                	c.bnez	x9,502 <_min_stack+0x106>
     518:	c436                	c.swsp	x13,8(x2)
     51a:	84b6                	c.mv	x9,x13
     51c:	b7ed                	c.j	506 <_min_stack+0x10a>
     51e:	32038263          	beq	x7,x0,842 <_min_stack+0x446>
     522:	0043a703          	lw	x14,4(x7)
     526:	879e                	c.mv	x15,x7
     528:	00074703          	lbu	x14,0(x14)
     52c:	00e41863          	bne	x8,x14,53c <_min_stack+0x140>
     530:	bd85                	c.j	3a0 <core_bench_list+0x54>
     532:	43d8                	c.lw	x14,4(x15)
     534:	00074703          	lbu	x14,0(x14)
     538:	e68704e3          	beq	x14,x8,3a0 <core_bench_list+0x54>
     53c:	439c                	c.lw	x15,0(x15)
     53e:	fbf5                	c.bnez	x15,532 <_min_stack+0x136>
     540:	b585                	c.j	3a0 <core_bench_list+0x54>
     542:	42dc                	c.lw	x15,4(x13)
     544:	0485                	c.addi	x9,1
     546:	04c2                	c.slli	x9,0x10
     548:	00178783          	lb	x15,1(x15)
     54c:	80c1                	c.srli	x9,0x10
     54e:	8b85                	c.andi	x15,1
     550:	963e                	c.add	x12,x15
     552:	0642                	c.slli	x12,0x10
     554:	8241                	c.srli	x12,0x10
     556:	bd41                	c.j	3e6 <core_bench_list+0x9a>
     558:	86ba                	c.mv	x13,x14
     55a:	17fd                	c.addi	x15,-1
     55c:	4318                	c.lw	x14,0(x14)
     55e:	b74d                	c.j	500 <_min_stack+0x104>
     560:	f20390e3          	bne	x7,x0,480 <_min_stack+0x84>
     564:	4782                	c.lwsp	x15,0(x2)
     566:	0004a023          	sw	x0,0(x9)
     56a:	4705                	c.li	x14,1
     56c:	00e78b63          	beq	x15,x14,582 <_min_stack+0x186>
     570:	47a2                	c.lwsp	x15,8(x2)
     572:	0406                	c.slli	x8,0x1
     574:	1c078c63          	beq	x15,x0,74c <_min_stack+0x350>
     578:	83be                	c.mv	x7,x15
     57a:	c002                	c.swsp	x0,0(x2)
     57c:	4481                	c.li	x9,0
     57e:	c402                	c.swsp	x0,8(x2)
     580:	b701                	c.j	480 <_min_stack+0x84>
     582:	47a2                	c.lwsp	x15,8(x2)
     584:	4380                	c.lw	x8,0(x15)
     586:	2a040c63          	beq	x8,x0,83e <_min_stack+0x442>
     58a:	55c2                	c.lwsp	x11,48(x2)
     58c:	84be                	c.mv	x9,x15
     58e:	40dc                	c.lw	x15,4(x9)
     590:	00079503          	lh	x10,0(x15)
     594:	1e3010ef          	jal	x1,1f76 <crc16>
     598:	4000                	c.lw	x8,0(x8)
     59a:	85aa                	c.mv	x11,x10
     59c:	f86d                	c.bnez	x8,58e <_min_stack+0x192>
     59e:	d82a                	c.swsp	x10,48(x2)
     5a0:	4096                	c.lwsp	x1,68(x2)
     5a2:	4406                	c.lwsp	x8,64(x2)
     5a4:	54f2                	c.lwsp	x9,60(x2)
     5a6:	04810113          	addi	x2,x2,72
     5aa:	8082                	c.jr	x1
     5ac:	5752                	c.lwsp	x14,52(x2)
     5ae:	40dc                	c.lw	x15,4(x9)
     5b0:	0007c783          	lbu	x15,0(x15)
     5b4:	e8e78de3          	beq	x15,x14,44e <_min_stack+0x52>
     5b8:	4084                	c.lw	x9,0(x9)
     5ba:	f8f5                	c.bnez	x9,5ae <_min_stack+0x1b2>
     5bc:	0003a483          	lw	x9,0(x7)
     5c0:	e80497e3          	bne	x9,x0,44e <_min_stack+0x52>
     5c4:	ac8d                	c.j	836 <_min_stack+0x43a>
     5c6:	dc2e                	c.swsp	x11,56(x2)
     5c8:	d802                	c.swsp	x0,48(x2)
     5ca:	e4b056e3          	bge	x0,x11,416 <_min_stack+0x1a>
     5ce:	16038f63          	beq	x7,x0,74c <_min_stack+0x350>
     5d2:	4785                	c.li	x15,1
     5d4:	d01e                	c.swsp	x7,32(x2)
     5d6:	d43e                	c.swsp	x15,40(x2)
     5d8:	8396                	c.mv	x7,x5
     5da:	5782                	c.lwsp	x15,32(x2)
     5dc:	c802                	c.swsp	x0,16(x2)
     5de:	d002                	c.swsp	x0,32(x2)
     5e0:	c23e                	c.swsp	x15,4(x2)
     5e2:	02838793          	addi	x15,x7,40
     5e6:	d202                	c.swsp	x0,36(x2)
     5e8:	d63e                	c.swsp	x15,44(x2)
     5ea:	5792                	c.lwsp	x15,36(x2)
     5ec:	4292                	c.lwsp	x5,4(x2)
     5ee:	4481                	c.li	x9,0
     5f0:	0785                	c.addi	x15,1
     5f2:	d23e                	c.swsp	x15,36(x2)
     5f4:	57a2                	c.lwsp	x15,40(x2)
     5f6:	0002a283          	lw	x5,0(x5)
     5fa:	0485                	c.addi	x9,1
     5fc:	00028463          	beq	x5,x0,604 <_min_stack+0x208>
     600:	fef49be3          	bne	x9,x15,5f6 <_min_stack+0x1fa>
     604:	57a2                	c.lwsp	x15,40(x2)
     606:	c426                	c.swsp	x9,8(x2)
     608:	c03e                	c.swsp	x15,0(x2)
     60a:	47a2                	c.lwsp	x15,8(x2)
     60c:	cbed                	c.beqz	x15,6fe <_min_stack+0x302>
     60e:	4782                	c.lwsp	x15,0(x2)
     610:	10078663          	beq	x15,x0,71c <_min_stack+0x320>
     614:	10028463          	beq	x5,x0,71c <_min_stack+0x320>
     618:	4792                	c.lwsp	x15,4(x2)
     61a:	0047a303          	lw	x6,4(x15)
     61e:	0042a783          	lw	x15,4(x5)
     622:	00031403          	lh	x8,0(x6)
     626:	c63e                	c.swsp	x15,12(x2)
     628:	08047793          	andi	x15,x8,128
     62c:	07f47493          	andi	x9,x8,127
     630:	eba1                	c.bnez	x15,680 <_min_stack+0x284>
     632:	40345593          	srai	x11,x8,0x3
     636:	89bd                	c.andi	x11,15
     638:	00459793          	slli	x15,x11,0x4
     63c:	00747713          	andi	x14,x8,7
     640:	8ddd                	c.or	x11,x15
     642:	0383d783          	lhu	x15,56(x7)
     646:	1a070463          	beq	x14,x0,7ee <_min_stack+0x3f2>
     64a:	4685                	c.li	x13,1
     64c:	16d70c63          	beq	x14,x13,7c4 <_min_stack+0x3c8>
     650:	01041513          	slli	x10,x8,0x10
     654:	8141                	c.srli	x10,0x10
     656:	84a2                	c.mv	x9,x8
     658:	85be                	c.mv	x11,x15
     65a:	ce1e                	c.swsp	x7,28(x2)
     65c:	cc16                	c.swsp	x5,24(x2)
     65e:	ca1a                	c.swsp	x6,20(x2)
     660:	4c0010ef          	jal	x1,1b20 <crcu16>
     664:	43f2                	c.lwsp	x7,28(x2)
     666:	07f4f493          	andi	x9,x9,127
     66a:	f0047413          	andi	x8,x8,-256
     66e:	4352                	c.lwsp	x6,20(x2)
     670:	8c45                	c.or	x8,x9
     672:	42e2                	c.lwsp	x5,24(x2)
     674:	02a39c23          	sh	x10,56(x7)
     678:	08046413          	ori	x8,x8,128
     67c:	00831023          	sh	x8,0(x6)
     680:	47b2                	c.lwsp	x15,12(x2)
     682:	00079303          	lh	x6,0(x15)
     686:	08037793          	andi	x15,x6,128
     68a:	07f37413          	andi	x8,x6,127
     68e:	eba9                	c.bnez	x15,6e0 <_min_stack+0x2e4>
     690:	40335593          	srai	x11,x6,0x3
     694:	89bd                	c.andi	x11,15
     696:	00459793          	slli	x15,x11,0x4
     69a:	00737713          	andi	x14,x6,7
     69e:	8ddd                	c.or	x11,x15
     6a0:	0383d783          	lhu	x15,56(x7)
     6a4:	cf61                	c.beqz	x14,77c <_min_stack+0x380>
     6a6:	4685                	c.li	x13,1
     6a8:	0ad70563          	beq	x14,x13,752 <_min_stack+0x356>
     6ac:	01031513          	slli	x10,x6,0x10
     6b0:	8141                	c.srli	x10,0x10
     6b2:	841a                	c.mv	x8,x6
     6b4:	85be                	c.mv	x11,x15
     6b6:	ce1e                	c.swsp	x7,28(x2)
     6b8:	cc16                	c.swsp	x5,24(x2)
     6ba:	ca1a                	c.swsp	x6,20(x2)
     6bc:	464010ef          	jal	x1,1b20 <crcu16>
     6c0:	4352                	c.lwsp	x6,20(x2)
     6c2:	43f2                	c.lwsp	x7,28(x2)
     6c4:	07f47413          	andi	x8,x8,127
     6c8:	f0037313          	andi	x6,x6,-256
     6cc:	47b2                	c.lwsp	x15,12(x2)
     6ce:	00646333          	or	x6,x8,x6
     6d2:	42e2                	c.lwsp	x5,24(x2)
     6d4:	02a39c23          	sh	x10,56(x7)
     6d8:	08036313          	ori	x6,x6,128
     6dc:	00679023          	sh	x6,0(x15)
     6e0:	8c81                	c.sub	x9,x8
     6e2:	02905d63          	bge	x0,x9,71c <_min_stack+0x320>
     6e6:	4702                	c.lwsp	x14,0(x2)
     6e8:	8796                	c.mv	x15,x5
     6ea:	0002a283          	lw	x5,0(x5)
     6ee:	177d                	c.addi	x14,-1
     6f0:	c03a                	c.swsp	x14,0(x2)
     6f2:	4742                	c.lwsp	x14,16(x2)
     6f4:	c30d                	c.beqz	x14,716 <_min_stack+0x31a>
     6f6:	c31c                	c.sw	x15,0(x14)
     6f8:	c83e                	c.swsp	x15,16(x2)
     6fa:	47a2                	c.lwsp	x15,8(x2)
     6fc:	fb89                	c.bnez	x15,60e <_min_stack+0x212>
     6fe:	4782                	c.lwsp	x15,0(x2)
     700:	c795                	c.beqz	x15,72c <_min_stack+0x330>
     702:	02028863          	beq	x5,x0,732 <_min_stack+0x336>
     706:	873e                	c.mv	x14,x15
     708:	177d                	c.addi	x14,-1
     70a:	c03a                	c.swsp	x14,0(x2)
     70c:	4742                	c.lwsp	x14,16(x2)
     70e:	8796                	c.mv	x15,x5
     710:	0002a283          	lw	x5,0(x5)
     714:	f36d                	c.bnez	x14,6f6 <_min_stack+0x2fa>
     716:	d03e                	c.swsp	x15,32(x2)
     718:	c83e                	c.swsp	x15,16(x2)
     71a:	b7c5                	c.j	6fa <_min_stack+0x2fe>
     71c:	4712                	c.lwsp	x14,4(x2)
     71e:	46a2                	c.lwsp	x13,8(x2)
     720:	87ba                	c.mv	x15,x14
     722:	4318                	c.lw	x14,0(x14)
     724:	16fd                	c.addi	x13,-1
     726:	c436                	c.swsp	x13,8(x2)
     728:	c23a                	c.swsp	x14,4(x2)
     72a:	b7e1                	c.j	6f2 <_min_stack+0x2f6>
     72c:	c216                	c.swsp	x5,4(x2)
     72e:	ea029ee3          	bne	x5,x0,5ea <_min_stack+0x1ee>
     732:	47c2                	c.lwsp	x15,16(x2)
     734:	5712                	c.lwsp	x14,36(x2)
     736:	0007a023          	sw	x0,0(x15)
     73a:	4785                	c.li	x15,1
     73c:	0ef70f63          	beq	x14,x15,83a <_min_stack+0x43e>
     740:	57a2                	c.lwsp	x15,40(x2)
     742:	0786                	c.slli	x15,0x1
     744:	d43e                	c.swsp	x15,40(x2)
     746:	5782                	c.lwsp	x15,32(x2)
     748:	e80799e3          	bne	x15,x0,5da <_min_stack+0x1de>
     74c:	00002023          	sw	x0,0(x0) # 0 <_start>
     750:	9002                	c.ebreak
     752:	5532                	c.lwsp	x10,44(x2)
     754:	863e                	c.mv	x12,x15
     756:	ce1e                	c.swsp	x7,28(x2)
     758:	cc16                	c.swsp	x5,24(x2)
     75a:	ca1a                	c.swsp	x6,20(x2)
     75c:	131000ef          	jal	x1,108c <core_bench_matrix>
     760:	43f2                	c.lwsp	x7,28(x2)
     762:	01051413          	slli	x8,x10,0x10
     766:	8441                	c.srai	x8,0x10
     768:	03c3d783          	lhu	x15,60(x7)
     76c:	4352                	c.lwsp	x6,20(x2)
     76e:	42e2                	c.lwsp	x5,24(x2)
     770:	e7b9                	c.bnez	x15,7be <_min_stack+0x3c2>
     772:	0383d783          	lhu	x15,56(x7)
     776:	02a39e23          	sh	x10,60(x7)
     77a:	bf2d                	c.j	6b4 <_min_stack+0x2b8>
     77c:	02200693          	addi	x13,x0,34
     780:	872e                	c.mv	x14,x11
     782:	00d5d463          	bge	x11,x13,78a <_min_stack+0x38e>
     786:	02200713          	addi	x14,x0,34
     78a:	00239683          	lh	x13,2(x7)
     78e:	00039603          	lh	x12,0(x7)
     792:	0143a583          	lw	x11,20(x7)
     796:	0183a503          	lw	x10,24(x7)
     79a:	0ff77713          	andi	x14,x14,255
     79e:	ce16                	c.swsp	x5,28(x2)
     7a0:	cc1a                	c.swsp	x6,24(x2)
     7a2:	ca1e                	c.swsp	x7,20(x2)
     7a4:	140010ef          	jal	x1,18e4 <core_bench_state>
     7a8:	43d2                	c.lwsp	x7,20(x2)
     7aa:	01051413          	slli	x8,x10,0x10
     7ae:	8441                	c.srai	x8,0x10
     7b0:	03e3d783          	lhu	x15,62(x7)
     7b4:	4362                	c.lwsp	x6,24(x2)
     7b6:	42f2                	c.lwsp	x5,28(x2)
     7b8:	e399                	c.bnez	x15,7be <_min_stack+0x3c2>
     7ba:	02a39f23          	sh	x10,62(x7)
     7be:	0383d783          	lhu	x15,56(x7)
     7c2:	bdcd                	c.j	6b4 <_min_stack+0x2b8>
     7c4:	5532                	c.lwsp	x10,44(x2)
     7c6:	863e                	c.mv	x12,x15
     7c8:	ce1e                	c.swsp	x7,28(x2)
     7ca:	cc16                	c.swsp	x5,24(x2)
     7cc:	ca1a                	c.swsp	x6,20(x2)
     7ce:	0bf000ef          	jal	x1,108c <core_bench_matrix>
     7d2:	43f2                	c.lwsp	x7,28(x2)
     7d4:	01051493          	slli	x9,x10,0x10
     7d8:	84c1                	c.srai	x9,0x10
     7da:	03c3d783          	lhu	x15,60(x7)
     7de:	4352                	c.lwsp	x6,20(x2)
     7e0:	42e2                	c.lwsp	x5,24(x2)
     7e2:	e7b9                	c.bnez	x15,830 <_min_stack+0x434>
     7e4:	0383d783          	lhu	x15,56(x7)
     7e8:	02a39e23          	sh	x10,60(x7)
     7ec:	b5b5                	c.j	658 <_min_stack+0x25c>
     7ee:	02200693          	addi	x13,x0,34
     7f2:	872e                	c.mv	x14,x11
     7f4:	00d5d463          	bge	x11,x13,7fc <_min_stack+0x400>
     7f8:	02200713          	addi	x14,x0,34
     7fc:	00239683          	lh	x13,2(x7)
     800:	00039603          	lh	x12,0(x7)
     804:	0143a583          	lw	x11,20(x7)
     808:	0183a503          	lw	x10,24(x7)
     80c:	0ff77713          	andi	x14,x14,255
     810:	ce16                	c.swsp	x5,28(x2)
     812:	cc1a                	c.swsp	x6,24(x2)
     814:	ca1e                	c.swsp	x7,20(x2)
     816:	0ce010ef          	jal	x1,18e4 <core_bench_state>
     81a:	43d2                	c.lwsp	x7,20(x2)
     81c:	01051493          	slli	x9,x10,0x10
     820:	84c1                	c.srai	x9,0x10
     822:	03e3d783          	lhu	x15,62(x7)
     826:	4362                	c.lwsp	x6,24(x2)
     828:	42f2                	c.lwsp	x5,28(x2)
     82a:	e399                	c.bnez	x15,830 <_min_stack+0x434>
     82c:	02a39f23          	sh	x10,62(x7)
     830:	0383d783          	lhu	x15,56(x7)
     834:	b515                	c.j	658 <_min_stack+0x25c>
     836:	4782                	c.lwsp	x15,0(x2)
     838:	b915                	c.j	46c <_min_stack+0x70>
     83a:	5382                	c.lwsp	x7,32(x2)
     83c:	bee9                	c.j	416 <_min_stack+0x1a>
     83e:	5542                	c.lwsp	x10,48(x2)
     840:	b385                	c.j	5a0 <_min_stack+0x1a4>
     842:	00002783          	lw	x15,0(x0) # 0 <_start>
     846:	9002                	c.ebreak

00000848 <core_list_init>:
     848:	1111                	c.addi	x2,-28
     84a:	c826                	c.swsp	x9,16(x2)
     84c:	84ae                	c.mv	x9,x11
     84e:	45d1                	c.li	x11,20
     850:	ca22                	c.swsp	x8,20(x2)
     852:	c632                	c.swsp	x12,12(x2)
     854:	cc06                	c.swsp	x1,24(x2)
     856:	29e040ef          	jal	x1,4af4 <__udivsi3>
     85a:	1579                	c.addi	x10,-2
     85c:	00351293          	slli	x5,x10,0x3
     860:	92a6                	c.add	x5,x9
     862:	77e1                	c.lui	x15,0xffff8
     864:	00251693          	slli	x13,x10,0x2
     868:	0004a023          	sw	x0,0(x9)
     86c:	0054a223          	sw	x5,4(x9)
     870:	08078713          	addi	x14,x15,128 # ffff8080 <_stack_start+0xffef8084>
     874:	9696                	c.add	x13,x5
     876:	00e29023          	sh	x14,0(x5)
     87a:	00029123          	sh	x0,2(x5)
     87e:	01048713          	addi	x14,x9,16
     882:	c036                	c.swsp	x13,0(x2)
     884:	00848413          	addi	x8,x9,8
     888:	00428613          	addi	x12,x5,4
     88c:	18577c63          	bgeu	x14,x5,a24 <core_list_init+0x1dc>
     890:	85b6                	c.mv	x11,x13
     892:	00828693          	addi	x13,x5,8
     896:	18b6f763          	bgeu	x13,x11,a24 <core_list_init+0x1dc>
     89a:	c4d0                	c.sw	x12,12(x9)
     89c:	0004a423          	sw	x0,8(x9)
     8a0:	c080                	c.sw	x8,0(x9)
     8a2:	fff7c793          	xori	x15,x15,-1
     8a6:	567d                	c.li	x12,-1
     8a8:	00c29223          	sh	x12,4(x5)
     8ac:	00f29323          	sh	x15,6(x5)
     8b0:	cd39                	c.beqz	x10,90e <core_list_init+0xc6>
     8b2:	00c15783          	lhu	x15,12(x2)
     8b6:	4601                	c.li	x12,0
     8b8:	c23e                	c.swsp	x15,4(x2)
     8ba:	77e1                	c.lui	x15,0xffff8
     8bc:	fff7c793          	xori	x15,x15,-1
     8c0:	00f11423          	sh	x15,8(x2)
     8c4:	00870313          	addi	x6,x14,8
     8c8:	04537063          	bgeu	x6,x5,908 <core_list_init+0xc0>
     8cc:	4782                	c.lwsp	x15,0(x2)
     8ce:	00468393          	addi	x7,x13,4
     8d2:	02f3fb63          	bgeu	x7,x15,908 <core_list_init+0xc0>
     8d6:	4792                	c.lwsp	x15,4(x2)
     8d8:	01061593          	slli	x11,x12,0x10
     8dc:	81c1                	c.srli	x11,0x10
     8de:	8fad                	c.xor	x15,x11
     8e0:	078e                	c.slli	x15,0x3
     8e2:	0787f793          	andi	x15,x15,120
     8e6:	899d                	c.andi	x11,7
     8e8:	8ddd                	c.or	x11,x15
     8ea:	00859793          	slli	x15,x11,0x8
     8ee:	c300                	c.sw	x8,0(x14)
     8f0:	8ddd                	c.or	x11,x15
     8f2:	00815783          	lhu	x15,8(x2)
     8f6:	c098                	c.sw	x14,0(x9)
     8f8:	c354                	c.sw	x13,4(x14)
     8fa:	00b69023          	sh	x11,0(x13)
     8fe:	00f69123          	sh	x15,2(x13)
     902:	843a                	c.mv	x8,x14
     904:	869e                	c.mv	x13,x7
     906:	871a                	c.mv	x14,x6
     908:	0605                	c.addi	x12,1
     90a:	fac51de3          	bne	x10,x12,8c4 <core_list_init+0x7c>
     90e:	401c                	c.lw	x15,0(x8)
     910:	c385                	c.beqz	x15,930 <core_list_init+0xe8>
     912:	4595                	c.li	x11,5
     914:	1e0040ef          	jal	x1,4af4 <__udivsi3>
     918:	6611                	c.lui	x12,0x4
     91a:	4705                	c.li	x14,1
     91c:	167d                	c.addi	x12,-1
     91e:	4054                	c.lw	x13,4(x8)
     920:	0ca77863          	bgeu	x14,x10,9f0 <core_list_init+0x1a8>
     924:	4000                	c.lw	x8,0(x8)
     926:	00e69123          	sh	x14,2(x13)
     92a:	0705                	c.addi	x14,1
     92c:	401c                	c.lw	x15,0(x8)
     92e:	fbe5                	c.bnez	x15,91e <core_list_init+0xd6>
     930:	4785                	c.li	x15,1
     932:	c23e                	c.swsp	x15,4(x2)
     934:	87a6                	c.mv	x15,x9
     936:	4501                	c.li	x10,0
     938:	4481                	c.li	x9,0
     93a:	c002                	c.swsp	x0,0(x2)
     93c:	4702                	c.lwsp	x14,0(x2)
     93e:	85be                	c.mv	x11,x15
     940:	0705                	c.addi	x14,1
     942:	c03a                	c.swsp	x14,0(x2)
     944:	4701                	c.li	x14,0
     946:	418c                	c.lw	x11,0(x11)
     948:	0705                	c.addi	x14,1
     94a:	c581                	c.beqz	x11,952 <core_list_init+0x10a>
     94c:	4692                	c.lwsp	x13,4(x2)
     94e:	fed71ce3          	bne	x14,x13,946 <core_list_init+0xfe>
     952:	86be                	c.mv	x13,x15
     954:	4612                	c.lwsp	x12,4(x2)
     956:	87ae                	c.mv	x15,x11
     958:	c32d                	c.beqz	x14,9ba <core_list_init+0x172>
     95a:	ca2d                	c.beqz	x12,9cc <core_list_init+0x184>
     95c:	cba5                	c.beqz	x15,9cc <core_list_init+0x184>
     95e:	0046a383          	lw	x7,4(x13)
     962:	0047a283          	lw	x5,4(x15) # ffff8004 <_stack_start+0xffef8008>
     966:	00039583          	lh	x11,0(x7)
     96a:	00239403          	lh	x8,2(x7)
     96e:	00229303          	lh	x6,2(x5)
     972:	c422                	c.swsp	x8,8(x2)
     974:	01059413          	slli	x8,x11,0x10
     978:	8041                	c.srli	x8,0x10
     97a:	8021                	c.srli	x8,0x8
     97c:	f005f593          	andi	x11,x11,-256
     980:	8dc1                	c.or	x11,x8
     982:	00b39023          	sh	x11,0(x7)
     986:	00029583          	lh	x11,0(x5)
     98a:	4422                	c.lwsp	x8,8(x2)
     98c:	01059393          	slli	x7,x11,0x10
     990:	0103d393          	srli	x7,x7,0x10
     994:	f005f593          	andi	x11,x11,-256
     998:	0083d393          	srli	x7,x7,0x8
     99c:	0075e5b3          	or	x11,x11,x7
     9a0:	40640333          	sub	x6,x8,x6
     9a4:	00b29023          	sh	x11,0(x5)
     9a8:	02605263          	bge	x0,x6,9cc <core_list_init+0x184>
     9ac:	85be                	c.mv	x11,x15
     9ae:	439c                	c.lw	x15,0(x15)
     9b0:	167d                	c.addi	x12,-1
     9b2:	c911                	c.beqz	x10,9c6 <core_list_init+0x17e>
     9b4:	c10c                	c.sw	x11,0(x10)
     9b6:	852e                	c.mv	x10,x11
     9b8:	f34d                	c.bnez	x14,95a <core_list_init+0x112>
     9ba:	ce09                	c.beqz	x12,9d4 <core_list_init+0x18c>
     9bc:	cf89                	c.beqz	x15,9d6 <core_list_init+0x18e>
     9be:	85be                	c.mv	x11,x15
     9c0:	167d                	c.addi	x12,-1
     9c2:	439c                	c.lw	x15,0(x15)
     9c4:	f965                	c.bnez	x10,9b4 <core_list_init+0x16c>
     9c6:	84ae                	c.mv	x9,x11
     9c8:	852e                	c.mv	x10,x11
     9ca:	b7fd                	c.j	9b8 <core_list_init+0x170>
     9cc:	85b6                	c.mv	x11,x13
     9ce:	177d                	c.addi	x14,-1
     9d0:	4294                	c.lw	x13,0(x13)
     9d2:	b7c5                	c.j	9b2 <core_list_init+0x16a>
     9d4:	f7a5                	c.bnez	x15,93c <core_list_init+0xf4>
     9d6:	4782                	c.lwsp	x15,0(x2)
     9d8:	00052023          	sw	x0,0(x10)
     9dc:	4705                	c.li	x14,1
     9de:	02e78d63          	beq	x15,x14,a18 <core_list_init+0x1d0>
     9e2:	4792                	c.lwsp	x15,4(x2)
     9e4:	0786                	c.slli	x15,0x1
     9e6:	c23e                	c.swsp	x15,4(x2)
     9e8:	f4b1                	c.bnez	x9,934 <core_list_init+0xec>
     9ea:	00002023          	sw	x0,0(x0) # 0 <_start>
     9ee:	9002                	c.ebreak
     9f0:	01071593          	slli	x11,x14,0x10
     9f4:	81c1                	c.srli	x11,0x10
     9f6:	4332                	c.lwsp	x6,12(x2)
     9f8:	00158793          	addi	x15,x11,1
     9fc:	4000                	c.lw	x8,0(x8)
     9fe:	07a2                	c.slli	x15,0x8
     a00:	0065c5b3          	xor	x11,x11,x6
     a04:	7007f793          	andi	x15,x15,1792
     a08:	8fcd                	c.or	x15,x11
     a0a:	400c                	c.lw	x11,0(x8)
     a0c:	8ff1                	c.and	x15,x12
     a0e:	00f69123          	sh	x15,2(x13)
     a12:	0705                	c.addi	x14,1
     a14:	f589                	c.bnez	x11,91e <core_list_init+0xd6>
     a16:	bf29                	c.j	930 <core_list_init+0xe8>
     a18:	40e2                	c.lwsp	x1,24(x2)
     a1a:	4452                	c.lwsp	x8,20(x2)
     a1c:	8526                	c.mv	x10,x9
     a1e:	44c2                	c.lwsp	x9,16(x2)
     a20:	0171                	c.addi	x2,28
     a22:	8082                	c.jr	x1
     a24:	8722                	c.mv	x14,x8
     a26:	86b2                	c.mv	x13,x12
     a28:	4401                	c.li	x8,0
     a2a:	b559                	c.j	8b0 <core_list_init+0x68>

00000a2c <core_list_insert_new>:
     a2c:	00062303          	lw	x6,0(x12) # 4000 <__divdf3+0x32c>
     a30:	00830293          	addi	x5,x6,8
     a34:	02e2ff63          	bgeu	x5,x14,a72 <core_list_insert_new+0x46>
     a38:	4298                	c.lw	x14,0(x13)
     a3a:	00470393          	addi	x7,x14,4
     a3e:	02f3fa63          	bgeu	x7,x15,a72 <core_list_insert_new+0x46>
     a42:	00562023          	sw	x5,0(x12)
     a46:	411c                	c.lw	x15,0(x10)
     a48:	00059283          	lh	x5,0(x11)
     a4c:	00259603          	lh	x12,2(x11)
     a50:	00f32023          	sw	x15,0(x6)
     a54:	00652023          	sw	x6,0(x10)
     a58:	00e32223          	sw	x14,4(x6)
     a5c:	429c                	c.lw	x15,0(x13)
     a5e:	851a                	c.mv	x10,x6
     a60:	0791                	c.addi	x15,4
     a62:	c29c                	c.sw	x15,0(x13)
     a64:	00432783          	lw	x15,4(x6)
     a68:	00579023          	sh	x5,0(x15)
     a6c:	00c79123          	sh	x12,2(x15)
     a70:	8082                	c.jr	x1
     a72:	4301                	c.li	x6,0
     a74:	851a                	c.mv	x10,x6
     a76:	8082                	c.jr	x1

00000a78 <core_list_remove>:
     a78:	411c                	c.lw	x15,0(x10)
     a7a:	4150                	c.lw	x12,4(x10)
     a7c:	872a                	c.mv	x14,x10
     a7e:	43cc                	c.lw	x11,4(x15)
     a80:	4394                	c.lw	x13,0(x15)
     a82:	853e                	c.mv	x10,x15
     a84:	c34c                	c.sw	x11,4(x14)
     a86:	c3d0                	c.sw	x12,4(x15)
     a88:	c314                	c.sw	x13,0(x14)
     a8a:	0007a023          	sw	x0,0(x15)
     a8e:	8082                	c.jr	x1

00000a90 <core_list_undo_remove>:
     a90:	41d0                	c.lw	x12,4(x11)
     a92:	4154                	c.lw	x13,4(x10)
     a94:	4198                	c.lw	x14,0(x11)
     a96:	c150                	c.sw	x12,4(x10)
     a98:	c1d4                	c.sw	x13,4(x11)
     a9a:	c118                	c.sw	x14,0(x10)
     a9c:	c188                	c.sw	x10,0(x11)
     a9e:	8082                	c.jr	x1

00000aa0 <core_list_find>:
     aa0:	00259703          	lh	x14,2(x11)
     aa4:	02074163          	blt	x14,x0,ac6 <core_list_find+0x26>
     aa8:	cd11                	c.beqz	x10,ac4 <core_list_find+0x24>
     aaa:	415c                	c.lw	x15,4(x10)
     aac:	00279783          	lh	x15,2(x15)
     ab0:	00e79863          	bne	x15,x14,ac0 <core_list_find+0x20>
     ab4:	a81d                	c.j	aea <core_list_find+0x4a>
     ab6:	415c                	c.lw	x15,4(x10)
     ab8:	00279783          	lh	x15,2(x15)
     abc:	00e78463          	beq	x15,x14,ac4 <core_list_find+0x24>
     ac0:	4108                	c.lw	x10,0(x10)
     ac2:	f975                	c.bnez	x10,ab6 <core_list_find+0x16>
     ac4:	8082                	c.jr	x1
     ac6:	dd7d                	c.beqz	x10,ac4 <core_list_find+0x24>
     ac8:	415c                	c.lw	x15,4(x10)
     aca:	00059703          	lh	x14,0(x11)
     ace:	0007c783          	lbu	x15,0(x15)
     ad2:	00e79863          	bne	x15,x14,ae2 <core_list_find+0x42>
     ad6:	a819                	c.j	aec <core_list_find+0x4c>
     ad8:	415c                	c.lw	x15,4(x10)
     ada:	0007c783          	lbu	x15,0(x15)
     ade:	00e78563          	beq	x15,x14,ae8 <core_list_find+0x48>
     ae2:	4108                	c.lw	x10,0(x10)
     ae4:	f975                	c.bnez	x10,ad8 <core_list_find+0x38>
     ae6:	bff9                	c.j	ac4 <core_list_find+0x24>
     ae8:	8082                	c.jr	x1
     aea:	8082                	c.jr	x1
     aec:	8082                	c.jr	x1

00000aee <core_list_reverse>:
     aee:	c901                	c.beqz	x10,afe <core_list_reverse+0x10>
     af0:	4701                	c.li	x14,0
     af2:	a011                	c.j	af6 <core_list_reverse+0x8>
     af4:	853e                	c.mv	x10,x15
     af6:	411c                	c.lw	x15,0(x10)
     af8:	c118                	c.sw	x14,0(x10)
     afa:	872a                	c.mv	x14,x10
     afc:	ffe5                	c.bnez	x15,af4 <core_list_reverse+0x6>
     afe:	8082                	c.jr	x1

00000b00 <core_list_mergesort>:
     b00:	fd410113          	addi	x2,x2,-44
     b04:	d406                	c.swsp	x1,40(x2)
     b06:	d222                	c.swsp	x8,36(x2)
     b08:	d026                	c.swsp	x9,32(x2)
     b0a:	c62a                	c.swsp	x10,12(x2)
     b0c:	c82e                	c.swsp	x11,16(x2)
     b0e:	ca32                	c.swsp	x12,20(x2)
     b10:	cd51                	c.beqz	x10,bac <core_list_mergesort+0xac>
     b12:	4485                	c.li	x9,1
     b14:	42b2                	c.lwsp	x5,12(x2)
     b16:	83a6                	c.mv	x7,x9
     b18:	cc02                	c.swsp	x0,24(x2)
     b1a:	4401                	c.li	x8,0
     b1c:	c602                	c.swsp	x0,12(x2)
     b1e:	8496                	c.mv	x9,x5
     b20:	47e2                	c.lwsp	x15,24(x2)
     b22:	4701                	c.li	x14,0
     b24:	0785                	c.addi	x15,1
     b26:	cc3e                	c.swsp	x15,24(x2)
     b28:	87a6                	c.mv	x15,x9
     b2a:	439c                	c.lw	x15,0(x15)
     b2c:	0705                	c.addi	x14,1
     b2e:	c399                	c.beqz	x15,b34 <core_list_mergesort+0x34>
     b30:	fe771de3          	bne	x14,x7,b2a <core_list_mergesort+0x2a>
     b34:	86a2                	c.mv	x13,x8
     b36:	ce1e                	c.swsp	x7,28(x2)
     b38:	8426                	c.mv	x8,x9
     b3a:	831e                	c.mv	x6,x7
     b3c:	84b6                	c.mv	x9,x13
     b3e:	cb05                	c.beqz	x14,b6e <core_list_mergesort+0x6e>
     b40:	04030163          	beq	x6,x0,b82 <core_list_mergesort+0x82>
     b44:	cf9d                	c.beqz	x15,b82 <core_list_mergesort+0x82>
     b46:	43cc                	c.lw	x11,4(x15)
     b48:	c03e                	c.swsp	x15,0(x2)
     b4a:	4048                	c.lw	x10,4(x8)
     b4c:	47c2                	c.lwsp	x15,16(x2)
     b4e:	4652                	c.lwsp	x12,20(x2)
     b50:	c41a                	c.swsp	x6,8(x2)
     b52:	c23a                	c.swsp	x14,4(x2)
     b54:	9782                	c.jalr	x15
     b56:	4782                	c.lwsp	x15,0(x2)
     b58:	4712                	c.lwsp	x14,4(x2)
     b5a:	4322                	c.lwsp	x6,8(x2)
     b5c:	02a05363          	bge	x0,x10,b82 <core_list_mergesort+0x82>
     b60:	86be                	c.mv	x13,x15
     b62:	439c                	c.lw	x15,0(x15)
     b64:	137d                	c.addi	x6,-1
     b66:	c899                	c.beqz	x9,b7c <core_list_mergesort+0x7c>
     b68:	c094                	c.sw	x13,0(x9)
     b6a:	84b6                	c.mv	x9,x13
     b6c:	fb71                	c.bnez	x14,b40 <core_list_mergesort+0x40>
     b6e:	00030e63          	beq	x6,x0,b8a <core_list_mergesort+0x8a>
     b72:	c395                	c.beqz	x15,b96 <core_list_mergesort+0x96>
     b74:	86be                	c.mv	x13,x15
     b76:	137d                	c.addi	x6,-1
     b78:	439c                	c.lw	x15,0(x15)
     b7a:	f4fd                	c.bnez	x9,b68 <core_list_mergesort+0x68>
     b7c:	c636                	c.swsp	x13,12(x2)
     b7e:	84b6                	c.mv	x9,x13
     b80:	b7f5                	c.j	b6c <core_list_mergesort+0x6c>
     b82:	86a2                	c.mv	x13,x8
     b84:	177d                	c.addi	x14,-1
     b86:	4000                	c.lw	x8,0(x8)
     b88:	bff9                	c.j	b66 <core_list_mergesort+0x66>
     b8a:	8426                	c.mv	x8,x9
     b8c:	43f2                	c.lwsp	x7,28(x2)
     b8e:	84be                	c.mv	x9,x15
     b90:	fbc1                	c.bnez	x15,b20 <core_list_mergesort+0x20>
     b92:	849e                	c.mv	x9,x7
     b94:	a019                	c.j	b9a <core_list_mergesort+0x9a>
     b96:	8426                	c.mv	x8,x9
     b98:	44f2                	c.lwsp	x9,28(x2)
     b9a:	4762                	c.lwsp	x14,24(x2)
     b9c:	00042023          	sw	x0,0(x8)
     ba0:	4785                	c.li	x15,1
     ba2:	00f70863          	beq	x14,x15,bb2 <core_list_mergesort+0xb2>
     ba6:	47b2                	c.lwsp	x15,12(x2)
     ba8:	0486                	c.slli	x9,0x1
     baa:	f7ad                	c.bnez	x15,b14 <core_list_mergesort+0x14>
     bac:	00002023          	sw	x0,0(x0) # 0 <_start>
     bb0:	9002                	c.ebreak
     bb2:	50a2                	c.lwsp	x1,40(x2)
     bb4:	5412                	c.lwsp	x8,36(x2)
     bb6:	4532                	c.lwsp	x10,12(x2)
     bb8:	5482                	c.lwsp	x9,32(x2)
     bba:	02c10113          	addi	x2,x2,44
     bbe:	8082                	c.jr	x1

00000bc0 <iterate>:
     bc0:	4d5c                	c.lw	x15,28(x10)
     bc2:	1141                	c.addi	x2,-16
     bc4:	c422                	c.swsp	x8,8(x2)
     bc6:	c226                	c.swsp	x9,4(x2)
     bc8:	c606                	c.swsp	x1,12(x2)
     bca:	c03e                	c.swsp	x15,0(x2)
     bcc:	02052c23          	sw	x0,56(x10)
     bd0:	02052e23          	sw	x0,60(x10)
     bd4:	842a                	c.mv	x8,x10
     bd6:	4481                	c.li	x9,0
     bd8:	cb95                	c.beqz	x15,c0c <iterate+0x4c>
     bda:	4585                	c.li	x11,1
     bdc:	8522                	c.mv	x10,x8
     bde:	f6eff0ef          	jal	x1,34c <core_bench_list>
     be2:	03845583          	lhu	x11,56(x8)
     be6:	73b000ef          	jal	x1,1b20 <crcu16>
     bea:	02a41c23          	sh	x10,56(x8)
     bee:	55fd                	c.li	x11,-1
     bf0:	8522                	c.mv	x10,x8
     bf2:	f5aff0ef          	jal	x1,34c <core_bench_list>
     bf6:	03845583          	lhu	x11,56(x8)
     bfa:	727000ef          	jal	x1,1b20 <crcu16>
     bfe:	02a41c23          	sh	x10,56(x8)
     c02:	c899                	c.beqz	x9,c18 <iterate+0x58>
     c04:	4782                	c.lwsp	x15,0(x2)
     c06:	0485                	c.addi	x9,1
     c08:	fc9799e3          	bne	x15,x9,bda <iterate+0x1a>
     c0c:	40b2                	c.lwsp	x1,12(x2)
     c0e:	4422                	c.lwsp	x8,8(x2)
     c10:	4492                	c.lwsp	x9,4(x2)
     c12:	4501                	c.li	x10,0
     c14:	0141                	c.addi	x2,16
     c16:	8082                	c.jr	x1
     c18:	4702                	c.lwsp	x14,0(x2)
     c1a:	02a41d23          	sh	x10,58(x8)
     c1e:	4785                	c.li	x15,1
     c20:	fef706e3          	beq	x14,x15,c0c <iterate+0x4c>
     c24:	4485                	c.li	x9,1
     c26:	bf55                	c.j	bda <iterate+0x1a>

00000c28 <matrix_test>:
     c28:	77fd                	c.lui	x15,0xfffff
     c2a:	711d                	c.addi16sp	x2,-96
     c2c:	8fd9                	c.or	x15,x14
     c2e:	ce86                	c.swsp	x1,92(x2)
     c30:	cca2                	c.swsp	x8,88(x2)
     c32:	caa6                	c.swsp	x9,84(x2)
     c34:	c43a                	c.swsp	x14,8(x2)
     c36:	dc2e                	c.swsp	x11,56(x2)
     c38:	c0b2                	c.swsp	x12,64(x2)
     c3a:	d436                	c.swsp	x13,40(x2)
     c3c:	de3e                	c.swsp	x15,60(x2)
     c3e:	42050163          	beq	x10,x0,1060 <matrix_test+0x438>
     c42:	00151693          	slli	x13,x10,0x1
     c46:	40a005b3          	sub	x11,x0,x10
     c4a:	87b2                	c.mv	x15,x12
     c4c:	c036                	c.swsp	x13,0(x2)
     c4e:	96b2                	c.add	x13,x12
     c50:	01071613          	slli	x12,x14,0x10
     c54:	00159393          	slli	x7,x11,0x1
     c58:	8241                	c.srli	x12,0x10
     c5a:	832a                	c.mv	x6,x10
     c5c:	c236                	c.swsp	x13,4(x2)
     c5e:	c4b2                	c.swsp	x12,72(x2)
     c60:	c6be                	c.swsp	x15,76(x2)
     c62:	d01e                	c.swsp	x7,32(x2)
     c64:	4281                	c.li	x5,0
     c66:	058a                	c.slli	x11,0x2
     c68:	00d38533          	add	x10,x7,x13
     c6c:	87aa                	c.mv	x15,x10
     c6e:	0007d703          	lhu	x14,0(x15) # fffff000 <_stack_start+0xffeff004>
     c72:	0789                	c.addi	x15,2
     c74:	9732                	c.add	x14,x12
     c76:	fee79f23          	sh	x14,-2(x15)
     c7a:	fed79ae3          	bne	x15,x13,c6e <matrix_test+0x46>
     c7e:	00128793          	addi	x15,x5,1
     c82:	40b506b3          	sub	x13,x10,x11
     c86:	00f30463          	beq	x6,x15,c8e <matrix_test+0x66>
     c8a:	82be                	c.mv	x5,x15
     c8c:	bff1                	c.j	c68 <matrix_test+0x40>
     c8e:	00279693          	slli	x13,x15,0x2
     c92:	d236                	c.swsp	x13,36(x2)
     c94:	56e2                	c.lwsp	x13,56(x2)
     c96:	40f00733          	sub	x14,x0,x15
     c9a:	d63a                	c.swsp	x14,44(x2)
     c9c:	070a                	c.slli	x14,0x2
     c9e:	c816                	c.swsp	x5,16(x2)
     ca0:	c8b6                	c.swsp	x13,80(x2)
     ca2:	c636                	c.swsp	x13,12(x2)
     ca4:	cc02                	c.swsp	x0,24(x2)
     ca6:	ce3a                	c.swsp	x14,28(x2)
     ca8:	d83e                	c.swsp	x15,48(x2)
     caa:	5782                	c.lwsp	x15,32(x2)
     cac:	4712                	c.lwsp	x14,4(x2)
     cae:	4432                	c.lwsp	x8,12(x2)
     cb0:	97ba                	c.add	x15,x14
     cb2:	ca3e                	c.swsp	x15,20(x2)
     cb4:	84be                	c.mv	x9,x15
     cb6:	00049503          	lh	x10,0(x9)
     cba:	45a2                	c.lwsp	x11,8(x2)
     cbc:	0489                	c.addi	x9,2
     cbe:	0411                	c.addi	x8,4
     cc0:	615030ef          	jal	x1,4ad4 <__mulsi3>
     cc4:	4792                	c.lwsp	x15,4(x2)
     cc6:	fea42e23          	sw	x10,-4(x8)
     cca:	fef496e3          	bne	x9,x15,cb6 <matrix_test+0x8e>
     cce:	46b2                	c.lwsp	x13,12(x2)
     cd0:	5612                	c.lwsp	x12,36(x2)
     cd2:	4762                	c.lwsp	x14,24(x2)
     cd4:	96b2                	c.add	x13,x12
     cd6:	c636                	c.swsp	x13,12(x2)
     cd8:	4672                	c.lwsp	x12,28(x2)
     cda:	46d2                	c.lwsp	x13,20(x2)
     cdc:	00170793          	addi	x15,x14,1
     ce0:	8e91                	c.sub	x13,x12
     ce2:	c236                	c.swsp	x13,4(x2)
     ce4:	46c2                	c.lwsp	x13,16(x2)
     ce6:	00d70463          	beq	x14,x13,cee <matrix_test+0xc6>
     cea:	cc3e                	c.swsp	x15,24(x2)
     cec:	bf7d                	c.j	caa <matrix_test+0x82>
     cee:	5692                	c.lwsp	x13,36(x2)
     cf0:	5762                	c.lwsp	x14,56(x2)
     cf2:	57c2                	c.lwsp	x15,48(x2)
     cf4:	52f2                	c.lwsp	x5,60(x2)
     cf6:	9736                	c.add	x14,x13
     cf8:	56b2                	c.lwsp	x13,44(x2)
     cfa:	4501                	c.li	x10,0
     cfc:	ca3a                	c.swsp	x14,20(x2)
     cfe:	833a                	c.mv	x6,x14
     d00:	c23e                	c.swsp	x15,4(x2)
     d02:	4701                	c.li	x14,0
     d04:	4581                	c.li	x11,0
     d06:	4381                	c.li	x7,0
     d08:	00369493          	slli	x9,x13,0x3
     d0c:	87aa                	c.mv	x15,x10
     d0e:	8432                	c.mv	x8,x12
     d10:	006400b3          	add	x1,x8,x6
     d14:	8606                	c.mv	x12,x1
     d16:	a039                	c.j	d24 <matrix_test+0xfc>
     d18:	07c2                	c.slli	x15,0x10
     d1a:	0611                	c.addi	x12,4
     d1c:	87c1                	c.srai	x15,0x10
     d1e:	8736                	c.mv	x14,x13
     d20:	02660563          	beq	x12,x6,d4a <matrix_test+0x122>
     d24:	4214                	c.lw	x13,0(x12)
     d26:	07c2                	c.slli	x15,0x10
     d28:	83c1                	c.srli	x15,0x10
     d2a:	00d72733          	slt	x14,x14,x13
     d2e:	95b6                	c.add	x11,x13
     d30:	00a78513          	addi	x10,x15,10
     d34:	97ba                	c.add	x15,x14
     d36:	feb2d1e3          	bge	x5,x11,d18 <matrix_test+0xf0>
     d3a:	01051793          	slli	x15,x10,0x10
     d3e:	0611                	c.addi	x12,4
     d40:	87c1                	c.srai	x15,0x10
     d42:	4581                	c.li	x11,0
     d44:	8736                	c.mv	x14,x13
     d46:	fc661fe3          	bne	x12,x6,d24 <matrix_test+0xfc>
     d4a:	46c2                	c.lwsp	x13,16(x2)
     d4c:	00138613          	addi	x12,x7,1
     d50:	40908333          	sub	x6,x1,x9
     d54:	00768463          	beq	x13,x7,d5c <matrix_test+0x134>
     d58:	83b2                	c.mv	x7,x12
     d5a:	bf5d                	c.j	d10 <matrix_test+0xe8>
     d5c:	853e                	c.mv	x10,x15
     d5e:	4581                	c.li	x11,0
     d60:	216010ef          	jal	x1,1f76 <crc16>
     d64:	5462                	c.lwsp	x8,56(x2)
     d66:	5612                	c.lwsp	x12,36(x2)
     d68:	cc2a                	c.swsp	x10,24(x2)
     d6a:	4581                	c.li	x11,0
     d6c:	8522                	c.mv	x10,x8
     d6e:	7c3030ef          	jal	x1,4d30 <memset>
     d72:	57a2                	c.lwsp	x15,40(x2)
     d74:	4702                	c.lwsp	x14,0(x2)
     d76:	c822                	c.swsp	x8,16(x2)
     d78:	97ba                	c.add	x15,x14
     d7a:	c43e                	c.swsp	x15,8(x2)
     d7c:	4786                	c.lwsp	x15,64(x2)
     d7e:	c63e                	c.swsp	x15,12(x2)
     d80:	4792                	c.lwsp	x15,4(x2)
     d82:	ce3e                	c.swsp	x15,28(x2)
     d84:	4432                	c.lwsp	x8,12(x2)
     d86:	57a2                	c.lwsp	x15,40(x2)
     d88:	4481                	c.li	x9,0
     d8a:	8726                	c.mv	x14,x9
     d8c:	84a2                	c.mv	x9,x8
     d8e:	843e                	c.mv	x8,x15
     d90:	00041583          	lh	x11,0(x8)
     d94:	00049503          	lh	x10,0(x9)
     d98:	c23a                	c.swsp	x14,4(x2)
     d9a:	0409                	c.addi	x8,2
     d9c:	539030ef          	jal	x1,4ad4 <__mulsi3>
     da0:	4712                	c.lwsp	x14,4(x2)
     da2:	47a2                	c.lwsp	x15,8(x2)
     da4:	0489                	c.addi	x9,2
     da6:	972a                	c.add	x14,x10
     da8:	fe8794e3          	bne	x15,x8,d90 <matrix_test+0x168>
     dac:	47c2                	c.lwsp	x15,16(x2)
     dae:	4682                	c.lwsp	x13,0(x2)
     db0:	c398                	c.sw	x14,0(x15)
     db2:	4732                	c.lwsp	x14,12(x2)
     db4:	0791                	c.addi	x15,4
     db6:	c83e                	c.swsp	x15,16(x2)
     db8:	9736                	c.add	x14,x13
     dba:	c63a                	c.swsp	x14,12(x2)
     dbc:	4752                	c.lwsp	x14,20(x2)
     dbe:	fcf713e3          	bne	x14,x15,d84 <matrix_test+0x15c>
     dc2:	47f2                	c.lwsp	x15,28(x2)
     dc4:	53e2                	c.lwsp	x7,56(x2)
     dc6:	50f2                	c.lwsp	x1,60(x2)
     dc8:	5412                	c.lwsp	x8,36(x2)
     dca:	4501                	c.li	x10,0
     dcc:	4701                	c.li	x14,0
     dce:	4601                	c.li	x12,0
     dd0:	4281                	c.li	x5,0
     dd2:	86aa                	c.mv	x13,x10
     dd4:	831e                	c.mv	x6,x7
     dd6:	4501                	c.li	x10,0
     dd8:	a801                	c.j	de8 <matrix_test+0x1c0>
     dda:	06c2                	c.slli	x13,0x10
     ddc:	0505                	c.addi	x10,1
     dde:	86c1                	c.srai	x13,0x10
     de0:	0311                	c.addi	x6,4
     de2:	872e                	c.mv	x14,x11
     de4:	02f57763          	bgeu	x10,x15,e12 <matrix_test+0x1ea>
     de8:	00032583          	lw	x11,0(x6)
     dec:	06c2                	c.slli	x13,0x10
     dee:	82c1                	c.srli	x13,0x10
     df0:	00b72733          	slt	x14,x14,x11
     df4:	962e                	c.add	x12,x11
     df6:	00a68493          	addi	x9,x13,10
     dfa:	96ba                	c.add	x13,x14
     dfc:	fcc0dfe3          	bge	x1,x12,dda <matrix_test+0x1b2>
     e00:	01049693          	slli	x13,x9,0x10
     e04:	0505                	c.addi	x10,1
     e06:	86c1                	c.srai	x13,0x10
     e08:	4601                	c.li	x12,0
     e0a:	0311                	c.addi	x6,4
     e0c:	872e                	c.mv	x14,x11
     e0e:	fcf56de3          	bltu	x10,x15,de8 <matrix_test+0x1c0>
     e12:	0285                	c.addi	x5,1
     e14:	93a2                	c.add	x7,x8
     e16:	faf2efe3          	bltu	x5,x15,dd4 <matrix_test+0x1ac>
     e1a:	45e2                	c.lwsp	x11,24(x2)
     e1c:	8536                	c.mv	x10,x13
     e1e:	c23e                	c.swsp	x15,4(x2)
     e20:	156010ef          	jal	x1,1f76 <crc16>
     e24:	4791                	c.li	x15,4
     e26:	d83e                	c.swsp	x15,48(x2)
     e28:	4792                	c.lwsp	x15,4(x2)
     e2a:	c2aa                	c.swsp	x10,68(x2)
     e2c:	22079763          	bne	x15,x0,105a <matrix_test+0x432>
     e30:	4706                	c.lwsp	x14,64(x2)
     e32:	da02                	c.swsp	x0,52(x2)
     e34:	843e                	c.mv	x8,x15
     e36:	ce3a                	c.swsp	x14,28(x2)
     e38:	5762                	c.lwsp	x14,56(x2)
     e3a:	d63a                	c.swsp	x14,44(x2)
     e3c:	54b2                	c.lwsp	x9,44(x2)
     e3e:	5642                	c.lwsp	x12,48(x2)
     e40:	4581                	c.li	x11,0
     e42:	8526                	c.mv	x10,x9
     e44:	6ed030ef          	jal	x1,4d30 <memset>
     e48:	53a2                	c.lwsp	x7,40(x2)
     e4a:	82a6                	c.mv	x5,x9
     e4c:	4481                	c.li	x9,0
     e4e:	8626                	c.mv	x12,x9
     e50:	47f2                	c.lwsp	x15,28(x2)
     e52:	4481                	c.li	x9,0
     e54:	cc16                	c.swsp	x5,24(x2)
     e56:	871e                	c.mv	x14,x7
     e58:	82a2                	c.mv	x5,x8
     e5a:	c832                	c.swsp	x12,16(x2)
     e5c:	ca1e                	c.swsp	x7,20(x2)
     e5e:	8426                	c.mv	x8,x9
     e60:	00079503          	lh	x10,0(x15)
     e64:	00071583          	lh	x11,0(x14)
     e68:	0789                	c.addi	x15,2
     e6a:	c616                	c.swsp	x5,12(x2)
     e6c:	c43a                	c.swsp	x14,8(x2)
     e6e:	c23e                	c.swsp	x15,4(x2)
     e70:	d03e                	c.swsp	x15,32(x2)
     e72:	463030ef          	jal	x1,4ad4 <__mulsi3>
     e76:	4782                	c.lwsp	x15,0(x2)
     e78:	4722                	c.lwsp	x14,8(x2)
     e7a:	42b2                	c.lwsp	x5,12(x2)
     e7c:	0405                	c.addi	x8,1
     e7e:	973e                	c.add	x14,x15
     e80:	94aa                	c.add	x9,x10
     e82:	4792                	c.lwsp	x15,4(x2)
     e84:	fc546ee3          	bltu	x8,x5,e60 <matrix_test+0x238>
     e88:	8416                	c.mv	x8,x5
     e8a:	4642                	c.lwsp	x12,16(x2)
     e8c:	42e2                	c.lwsp	x5,24(x2)
     e8e:	43d2                	c.lwsp	x7,20(x2)
     e90:	0605                	c.addi	x12,1
     e92:	0092a023          	sw	x9,0(x5)
     e96:	0389                	c.addi	x7,2
     e98:	0291                	c.addi	x5,4
     e9a:	fa866be3          	bltu	x12,x8,e50 <matrix_test+0x228>
     e9e:	5732                	c.lwsp	x14,44(x2)
     ea0:	5692                	c.lwsp	x13,36(x2)
     ea2:	57d2                	c.lwsp	x15,52(x2)
     ea4:	9736                	c.add	x14,x13
     ea6:	d63a                	c.swsp	x14,44(x2)
     ea8:	4682                	c.lwsp	x13,0(x2)
     eaa:	4772                	c.lwsp	x14,28(x2)
     eac:	0785                	c.addi	x15,1
     eae:	da3e                	c.swsp	x15,52(x2)
     eb0:	9736                	c.add	x14,x13
     eb2:	ce3a                	c.swsp	x14,28(x2)
     eb4:	f887e4e3          	bltu	x15,x8,e3c <matrix_test+0x214>
     eb8:	87a2                	c.mv	x15,x8
     eba:	53e2                	c.lwsp	x7,56(x2)
     ebc:	50f2                	c.lwsp	x1,60(x2)
     ebe:	5412                	c.lwsp	x8,36(x2)
     ec0:	4501                	c.li	x10,0
     ec2:	4701                	c.li	x14,0
     ec4:	4601                	c.li	x12,0
     ec6:	4281                	c.li	x5,0
     ec8:	86aa                	c.mv	x13,x10
     eca:	831e                	c.mv	x6,x7
     ecc:	4501                	c.li	x10,0
     ece:	a801                	c.j	ede <matrix_test+0x2b6>
     ed0:	06c2                	c.slli	x13,0x10
     ed2:	0505                	c.addi	x10,1
     ed4:	86c1                	c.srai	x13,0x10
     ed6:	0311                	c.addi	x6,4
     ed8:	872e                	c.mv	x14,x11
     eda:	02f57763          	bgeu	x10,x15,f08 <matrix_test+0x2e0>
     ede:	00032583          	lw	x11,0(x6)
     ee2:	06c2                	c.slli	x13,0x10
     ee4:	82c1                	c.srli	x13,0x10
     ee6:	00b72733          	slt	x14,x14,x11
     eea:	962e                	c.add	x12,x11
     eec:	00a68493          	addi	x9,x13,10
     ef0:	96ba                	c.add	x13,x14
     ef2:	fcc0dfe3          	bge	x1,x12,ed0 <matrix_test+0x2a8>
     ef6:	01049693          	slli	x13,x9,0x10
     efa:	0505                	c.addi	x10,1
     efc:	86c1                	c.srai	x13,0x10
     efe:	4601                	c.li	x12,0
     f00:	0311                	c.addi	x6,4
     f02:	872e                	c.mv	x14,x11
     f04:	fcf56de3          	bltu	x10,x15,ede <matrix_test+0x2b6>
     f08:	0285                	c.addi	x5,1
     f0a:	93a2                	c.add	x7,x8
     f0c:	faf2efe3          	bltu	x5,x15,eca <matrix_test+0x2a2>
     f10:	4596                	c.lwsp	x11,68(x2)
     f12:	8536                	c.mv	x10,x13
     f14:	c23e                	c.swsp	x15,4(x2)
     f16:	060010ef          	jal	x1,1f76 <crc16>
     f1a:	4786                	c.lwsp	x15,64(x2)
     f1c:	c2aa                	c.swsp	x10,68(x2)
     f1e:	da02                	c.swsp	x0,52(x2)
     f20:	ce3e                	c.swsp	x15,28(x2)
     f22:	57e2                	c.lwsp	x15,56(x2)
     f24:	d63e                	c.swsp	x15,44(x2)
     f26:	4792                	c.lwsp	x15,4(x2)
     f28:	843e                	c.mv	x8,x15
     f2a:	54b2                	c.lwsp	x9,44(x2)
     f2c:	5642                	c.lwsp	x12,48(x2)
     f2e:	4581                	c.li	x11,0
     f30:	8526                	c.mv	x10,x9
     f32:	5ff030ef          	jal	x1,4d30 <memset>
     f36:	53a2                	c.lwsp	x7,40(x2)
     f38:	82a6                	c.mv	x5,x9
     f3a:	4481                	c.li	x9,0
     f3c:	8322                	c.mv	x6,x8
     f3e:	8626                	c.mv	x12,x9
     f40:	841e                	c.mv	x8,x7
     f42:	47f2                	c.lwsp	x15,28(x2)
     f44:	4481                	c.li	x9,0
     f46:	8722                	c.mv	x14,x8
     f48:	c822                	c.swsp	x8,16(x2)
     f4a:	cc16                	c.swsp	x5,24(x2)
     f4c:	8426                	c.mv	x8,x9
     f4e:	ca32                	c.swsp	x12,20(x2)
     f50:	829a                	c.mv	x5,x6
     f52:	00079503          	lh	x10,0(x15)
     f56:	00071583          	lh	x11,0(x14)
     f5a:	0789                	c.addi	x15,2
     f5c:	c616                	c.swsp	x5,12(x2)
     f5e:	c43a                	c.swsp	x14,8(x2)
     f60:	c23e                	c.swsp	x15,4(x2)
     f62:	d03e                	c.swsp	x15,32(x2)
     f64:	371030ef          	jal	x1,4ad4 <__mulsi3>
     f68:	40255393          	srai	x7,x10,0x2
     f6c:	40555593          	srai	x11,x10,0x5
     f70:	07f5f593          	andi	x11,x11,127
     f74:	00f3f513          	andi	x10,x7,15
     f78:	35d030ef          	jal	x1,4ad4 <__mulsi3>
     f7c:	4782                	c.lwsp	x15,0(x2)
     f7e:	4722                	c.lwsp	x14,8(x2)
     f80:	42b2                	c.lwsp	x5,12(x2)
     f82:	0405                	c.addi	x8,1
     f84:	973e                	c.add	x14,x15
     f86:	94aa                	c.add	x9,x10
     f88:	4792                	c.lwsp	x15,4(x2)
     f8a:	fc5464e3          	bltu	x8,x5,f52 <matrix_test+0x32a>
     f8e:	8316                	c.mv	x6,x5
     f90:	4652                	c.lwsp	x12,20(x2)
     f92:	42e2                	c.lwsp	x5,24(x2)
     f94:	4442                	c.lwsp	x8,16(x2)
     f96:	0605                	c.addi	x12,1
     f98:	0092a023          	sw	x9,0(x5)
     f9c:	0409                	c.addi	x8,2
     f9e:	0291                	c.addi	x5,4
     fa0:	fa6661e3          	bltu	x12,x6,f42 <matrix_test+0x31a>
     fa4:	5732                	c.lwsp	x14,44(x2)
     fa6:	5692                	c.lwsp	x13,36(x2)
     fa8:	57d2                	c.lwsp	x15,52(x2)
     faa:	841a                	c.mv	x8,x6
     fac:	9736                	c.add	x14,x13
     fae:	d63a                	c.swsp	x14,44(x2)
     fb0:	4682                	c.lwsp	x13,0(x2)
     fb2:	4772                	c.lwsp	x14,28(x2)
     fb4:	0785                	c.addi	x15,1
     fb6:	da3e                	c.swsp	x15,52(x2)
     fb8:	9736                	c.add	x14,x13
     fba:	ce3a                	c.swsp	x14,28(x2)
     fbc:	f667e7e3          	bltu	x15,x6,f2a <matrix_test+0x302>
     fc0:	53f2                	c.lwsp	x7,60(x2)
     fc2:	5412                	c.lwsp	x8,36(x2)
     fc4:	40c6                	c.lwsp	x1,80(x2)
     fc6:	4501                	c.li	x10,0
     fc8:	879a                	c.mv	x15,x6
     fca:	4701                	c.li	x14,0
     fcc:	4601                	c.li	x12,0
     fce:	4281                	c.li	x5,0
     fd0:	86aa                	c.mv	x13,x10
     fd2:	8306                	c.mv	x6,x1
     fd4:	4501                	c.li	x10,0
     fd6:	a801                	c.j	fe6 <matrix_test+0x3be>
     fd8:	06c2                	c.slli	x13,0x10
     fda:	0505                	c.addi	x10,1
     fdc:	86c1                	c.srai	x13,0x10
     fde:	0311                	c.addi	x6,4
     fe0:	872e                	c.mv	x14,x11
     fe2:	02f57763          	bgeu	x10,x15,1010 <matrix_test+0x3e8>
     fe6:	00032583          	lw	x11,0(x6)
     fea:	06c2                	c.slli	x13,0x10
     fec:	82c1                	c.srli	x13,0x10
     fee:	00b72733          	slt	x14,x14,x11
     ff2:	962e                	c.add	x12,x11
     ff4:	00a68493          	addi	x9,x13,10
     ff8:	96ba                	c.add	x13,x14
     ffa:	fcc3dfe3          	bge	x7,x12,fd8 <matrix_test+0x3b0>
     ffe:	01049693          	slli	x13,x9,0x10
    1002:	0505                	c.addi	x10,1
    1004:	86c1                	c.srai	x13,0x10
    1006:	4601                	c.li	x12,0
    1008:	0311                	c.addi	x6,4
    100a:	872e                	c.mv	x14,x11
    100c:	fcf56de3          	bltu	x10,x15,fe6 <matrix_test+0x3be>
    1010:	0285                	c.addi	x5,1
    1012:	90a2                	c.add	x1,x8
    1014:	faf2efe3          	bltu	x5,x15,fd2 <matrix_test+0x3aa>
    1018:	4596                	c.lwsp	x11,68(x2)
    101a:	8536                	c.mv	x10,x13
    101c:	c23e                	c.swsp	x15,4(x2)
    101e:	759000ef          	jal	x1,1f76 <crc16>
    1022:	4382                	c.lwsp	x7,0(x2)
    1024:	4792                	c.lwsp	x15,4(x2)
    1026:	4326                	c.lwsp	x6,72(x2)
    1028:	42b6                	c.lwsp	x5,76(x2)
    102a:	4581                	c.li	x11,0
    102c:	8716                	c.mv	x14,x5
    102e:	4601                	c.li	x12,0
    1030:	00075683          	lhu	x13,0(x14)
    1034:	0709                	c.addi	x14,2
    1036:	0605                	c.addi	x12,1
    1038:	406686b3          	sub	x13,x13,x6
    103c:	fed71f23          	sh	x13,-2(x14)
    1040:	fef668e3          	bltu	x12,x15,1030 <matrix_test+0x408>
    1044:	0585                	c.addi	x11,1
    1046:	929e                	c.add	x5,x7
    1048:	fef5e2e3          	bltu	x11,x15,102c <matrix_test+0x404>
    104c:	40f6                	c.lwsp	x1,92(x2)
    104e:	4466                	c.lwsp	x8,88(x2)
    1050:	0542                	c.slli	x10,0x10
    1052:	44d6                	c.lwsp	x9,84(x2)
    1054:	8541                	c.srai	x10,0x10
    1056:	6125                	c.addi16sp	x2,96
    1058:	8082                	c.jr	x1
    105a:	5712                	c.lwsp	x14,36(x2)
    105c:	d83a                	c.swsp	x14,48(x2)
    105e:	bbc9                	c.j	e30 <matrix_test+0x208>
    1060:	4581                	c.li	x11,0
    1062:	715000ef          	jal	x1,1f76 <crc16>
    1066:	85aa                	c.mv	x11,x10
    1068:	4501                	c.li	x10,0
    106a:	70d000ef          	jal	x1,1f76 <crc16>
    106e:	85aa                	c.mv	x11,x10
    1070:	4501                	c.li	x10,0
    1072:	705000ef          	jal	x1,1f76 <crc16>
    1076:	85aa                	c.mv	x11,x10
    1078:	4501                	c.li	x10,0
    107a:	6fd000ef          	jal	x1,1f76 <crc16>
    107e:	40f6                	c.lwsp	x1,92(x2)
    1080:	4466                	c.lwsp	x8,88(x2)
    1082:	0542                	c.slli	x10,0x10
    1084:	44d6                	c.lwsp	x9,84(x2)
    1086:	8541                	c.srai	x10,0x10
    1088:	6125                	c.addi16sp	x2,96
    108a:	8082                	c.jr	x1

0000108c <core_bench_matrix>:
    108c:	1151                	c.addi	x2,-12
    108e:	c222                	c.swsp	x8,4(x2)
    1090:	872e                	c.mv	x14,x11
    1092:	8432                	c.mv	x8,x12
    1094:	454c                	c.lw	x11,12(x10)
    1096:	4514                	c.lw	x13,8(x10)
    1098:	4150                	c.lw	x12,4(x10)
    109a:	4108                	c.lw	x10,0(x10)
    109c:	c406                	c.swsp	x1,8(x2)
    109e:	3669                	c.jal	c28 <matrix_test>
    10a0:	85a2                	c.mv	x11,x8
    10a2:	4412                	c.lwsp	x8,4(x2)
    10a4:	40a2                	c.lwsp	x1,8(x2)
    10a6:	0131                	c.addi	x2,12
    10a8:	6cf0006f          	jal	x0,1f76 <crc16>

000010ac <core_init_matrix>:
    10ac:	fc410113          	addi	x2,x2,-60
    10b0:	d826                	c.swsp	x9,48(x2)
    10b2:	dc06                	c.swsp	x1,56(x2)
    10b4:	da22                	c.swsp	x8,52(x2)
    10b6:	d636                	c.swsp	x13,44(x2)
    10b8:	84aa                	c.mv	x9,x10
    10ba:	e211                	c.bnez	x12,10be <core_init_matrix+0x12>
    10bc:	4605                	c.li	x12,1
    10be:	fff58793          	addi	x15,x11,-1
    10c2:	9bf1                	c.andi	x15,-4
    10c4:	00478713          	addi	x14,x15,4
    10c8:	ce3a                	c.swsp	x14,28(x2)
    10ca:	c202                	c.swsp	x0,4(x2)
    10cc:	c4f5                	c.beqz	x9,11b8 <core_init_matrix+0x10c>
    10ce:	4401                	c.li	x8,0
    10d0:	c026                	c.swsp	x9,0(x2)
    10d2:	c432                	c.swsp	x12,8(x2)
    10d4:	a011                	c.j	10d8 <core_init_matrix+0x2c>
    10d6:	8426                	c.mv	x8,x9
    10d8:	00140493          	addi	x9,x8,1
    10dc:	85a6                	c.mv	x11,x9
    10de:	8526                	c.mv	x10,x9
    10e0:	1f5030ef          	jal	x1,4ad4 <__mulsi3>
    10e4:	4782                	c.lwsp	x15,0(x2)
    10e6:	050e                	c.slli	x10,0x3
    10e8:	fef567e3          	bltu	x10,x15,10d6 <core_init_matrix+0x2a>
    10ec:	4622                	c.lwsp	x12,8(x2)
    10ee:	85a2                	c.mv	x11,x8
    10f0:	8522                	c.mv	x10,x8
    10f2:	c032                	c.swsp	x12,0(x2)
    10f4:	c222                	c.swsp	x8,4(x2)
    10f6:	1df030ef          	jal	x1,4ad4 <__mulsi3>
    10fa:	4772                	c.lwsp	x14,28(x2)
    10fc:	00151793          	slli	x15,x10,0x1
    1100:	d43e                	c.swsp	x15,40(x2)
    1102:	97ba                	c.add	x15,x14
    1104:	d03e                	c.swsp	x15,32(x2)
    1106:	d222                	c.swsp	x8,36(x2)
    1108:	4602                	c.lwsp	x12,0(x2)
    110a:	cc5d                	c.beqz	x8,11c8 <core_init_matrix+0x11c>
    110c:	4792                	c.lwsp	x15,4(x2)
    110e:	4772                	c.lwsp	x14,28(x2)
    1110:	ca02                	c.swsp	x0,20(x2)
    1112:	0786                	c.slli	x15,0x1
    1114:	cc3e                	c.swsp	x15,24(x2)
    1116:	5782                	c.lwsp	x15,32(x2)
    1118:	4485                	c.li	x9,1
    111a:	8532                	c.mv	x10,x12
    111c:	c83e                	c.swsp	x15,16(x2)
    111e:	40f707b3          	sub	x15,x14,x15
    1122:	c63e                	c.swsp	x15,12(x2)
    1124:	67c1                	c.lui	x15,0x10
    1126:	17fd                	c.addi	x15,-1
    1128:	c43e                	c.swsp	x15,8(x2)
    112a:	4401                	c.li	x8,0
    112c:	4742                	c.lwsp	x14,16(x2)
    112e:	87a2                	c.mv	x15,x8
    1130:	8426                	c.mv	x8,x9
    1132:	84be                	c.mv	x9,x15
    1134:	85a2                	c.mv	x11,x8
    1136:	c03a                	c.swsp	x14,0(x2)
    1138:	19d030ef          	jal	x1,4ad4 <__mulsi3>
    113c:	41f55593          	srai	x11,x10,0x1f
    1140:	47a2                	c.lwsp	x15,8(x2)
    1142:	81c1                	c.srli	x11,0x10
    1144:	952e                	c.add	x10,x11
    1146:	8d7d                	c.and	x10,x15
    1148:	01041793          	slli	x15,x8,0x10
    114c:	83c1                	c.srli	x15,0x10
    114e:	8d0d                	c.sub	x10,x11
    1150:	00a785b3          	add	x11,x15,x10
    1154:	4702                	c.lwsp	x14,0(x2)
    1156:	05c2                	c.slli	x11,0x10
    1158:	46b2                	c.lwsp	x13,12(x2)
    115a:	81c1                	c.srli	x11,0x10
    115c:	97ae                	c.add	x15,x11
    115e:	00b71023          	sh	x11,0(x14)
    1162:	0ff7f793          	andi	x15,x15,255
    1166:	00e685b3          	add	x11,x13,x14
    116a:	00f59023          	sh	x15,0(x11)
    116e:	4792                	c.lwsp	x15,4(x2)
    1170:	0485                	c.addi	x9,1
    1172:	0405                	c.addi	x8,1
    1174:	0709                	c.addi	x14,2
    1176:	faf4efe3          	bltu	x9,x15,1134 <core_init_matrix+0x88>
    117a:	4742                	c.lwsp	x14,16(x2)
    117c:	46e2                	c.lwsp	x13,24(x2)
    117e:	47d2                	c.lwsp	x15,20(x2)
    1180:	84a2                	c.mv	x9,x8
    1182:	9736                	c.add	x14,x13
    1184:	c83a                	c.swsp	x14,16(x2)
    1186:	4712                	c.lwsp	x14,4(x2)
    1188:	0785                	c.addi	x15,1
    118a:	ca3e                	c.swsp	x15,20(x2)
    118c:	f8e7efe3          	bltu	x15,x14,112a <core_init_matrix+0x7e>
    1190:	853a                	c.mv	x10,x14
    1192:	5682                	c.lwsp	x13,32(x2)
    1194:	57a2                	c.lwsp	x15,40(x2)
    1196:	5732                	c.lwsp	x14,44(x2)
    1198:	4672                	c.lwsp	x12,28(x2)
    119a:	97b6                	c.add	x15,x13
    119c:	17fd                	c.addi	x15,-1
    119e:	9bf1                	c.andi	x15,-4
    11a0:	0791                	c.addi	x15,4
    11a2:	c75c                	c.sw	x15,12(x14)
    11a4:	5792                	c.lwsp	x15,36(x2)
    11a6:	50e2                	c.lwsp	x1,56(x2)
    11a8:	5452                	c.lwsp	x8,52(x2)
    11aa:	c350                	c.sw	x12,4(x14)
    11ac:	c714                	c.sw	x13,8(x14)
    11ae:	c31c                	c.sw	x15,0(x14)
    11b0:	54c2                	c.lwsp	x9,48(x2)
    11b2:	03c10113          	addi	x2,x2,60
    11b6:	8082                	c.jr	x1
    11b8:	0799                	c.addi	x15,6
    11ba:	d03e                	c.swsp	x15,32(x2)
    11bc:	57fd                	c.li	x15,-1
    11be:	d23e                	c.swsp	x15,36(x2)
    11c0:	c23e                	c.swsp	x15,4(x2)
    11c2:	4789                	c.li	x15,2
    11c4:	d43e                	c.swsp	x15,40(x2)
    11c6:	b799                	c.j	110c <core_init_matrix+0x60>
    11c8:	4792                	c.lwsp	x15,4(x2)
    11ca:	d23e                	c.swsp	x15,36(x2)
    11cc:	853e                	c.mv	x10,x15
    11ce:	b7d1                	c.j	1192 <core_init_matrix+0xe6>

000011d0 <matrix_sum>:
    11d0:	cd2d                	c.beqz	x10,124a <matrix_sum+0x7a>
    11d2:	40a007b3          	sub	x15,x0,x10
    11d6:	1141                	c.addi	x2,-16
    11d8:	00279713          	slli	x14,x15,0x2
    11dc:	00251293          	slli	x5,x10,0x2
    11e0:	078e                	c.slli	x15,0x3
    11e2:	83aa                	c.mv	x7,x10
    11e4:	4501                	c.li	x10,0
    11e6:	c622                	c.swsp	x8,12(x2)
    11e8:	92ae                	c.add	x5,x11
    11ea:	c03a                	c.swsp	x14,0(x2)
    11ec:	c23e                	c.swsp	x15,4(x2)
    11ee:	c426                	c.swsp	x9,8(x2)
    11f0:	4401                	c.li	x8,0
    11f2:	4701                	c.li	x14,0
    11f4:	4581                	c.li	x11,0
    11f6:	87aa                	c.mv	x15,x10
    11f8:	4682                	c.lwsp	x13,0(x2)
    11fa:	005684b3          	add	x9,x13,x5
    11fe:	86a6                	c.mv	x13,x9
    1200:	a039                	c.j	120e <matrix_sum+0x3e>
    1202:	07c2                	c.slli	x15,0x10
    1204:	0691                	c.addi	x13,4
    1206:	87c1                	c.srai	x15,0x10
    1208:	872a                	c.mv	x14,x10
    120a:	02d28563          	beq	x5,x13,1234 <matrix_sum+0x64>
    120e:	4288                	c.lw	x10,0(x13)
    1210:	07c2                	c.slli	x15,0x10
    1212:	83c1                	c.srli	x15,0x10
    1214:	00a72733          	slt	x14,x14,x10
    1218:	95aa                	c.add	x11,x10
    121a:	00a78313          	addi	x6,x15,10 # 1000a <_bss_end+0x98fe>
    121e:	97ba                	c.add	x15,x14
    1220:	feb651e3          	bge	x12,x11,1202 <matrix_sum+0x32>
    1224:	01031793          	slli	x15,x6,0x10
    1228:	0691                	c.addi	x13,4
    122a:	87c1                	c.srai	x15,0x10
    122c:	4581                	c.li	x11,0
    122e:	872a                	c.mv	x14,x10
    1230:	fcd29fe3          	bne	x5,x13,120e <matrix_sum+0x3e>
    1234:	4692                	c.lwsp	x13,4(x2)
    1236:	0405                	c.addi	x8,1
    1238:	40d482b3          	sub	x5,x9,x13
    123c:	fa839ee3          	bne	x7,x8,11f8 <matrix_sum+0x28>
    1240:	4432                	c.lwsp	x8,12(x2)
    1242:	44a2                	c.lwsp	x9,8(x2)
    1244:	853e                	c.mv	x10,x15
    1246:	0141                	c.addi	x2,16
    1248:	8082                	c.jr	x1
    124a:	4501                	c.li	x10,0
    124c:	8082                	c.jr	x1

0000124e <matrix_mul_const>:
    124e:	cd35                	c.beqz	x10,12ca <matrix_mul_const+0x7c>
    1250:	7179                	c.addi16sp	x2,-48
    1252:	00251713          	slli	x14,x10,0x2
    1256:	d422                	c.swsp	x8,40(x2)
    1258:	00151413          	slli	x8,x10,0x1
    125c:	40a007b3          	sub	x15,x0,x10
    1260:	ca3a                	c.swsp	x14,20(x2)
    1262:	00860733          	add	x14,x12,x8
    1266:	c03a                	c.swsp	x14,0(x2)
    1268:	00179713          	slli	x14,x15,0x1
    126c:	078a                	c.slli	x15,0x2
    126e:	d606                	c.swsp	x1,44(x2)
    1270:	d226                	c.swsp	x9,36(x2)
    1272:	c236                	c.swsp	x13,4(x2)
    1274:	d02a                	c.swsp	x10,32(x2)
    1276:	c42e                	c.swsp	x11,8(x2)
    1278:	cc3a                	c.swsp	x14,24(x2)
    127a:	c602                	c.swsp	x0,12(x2)
    127c:	ce3e                	c.swsp	x15,28(x2)
    127e:	4782                	c.lwsp	x15,0(x2)
    1280:	4762                	c.lwsp	x14,24(x2)
    1282:	4422                	c.lwsp	x8,8(x2)
    1284:	97ba                	c.add	x15,x14
    1286:	84a2                	c.mv	x9,x8
    1288:	c83e                	c.swsp	x15,16(x2)
    128a:	843e                	c.mv	x8,x15
    128c:	00041503          	lh	x10,0(x8)
    1290:	4592                	c.lwsp	x11,4(x2)
    1292:	0409                	c.addi	x8,2
    1294:	0491                	c.addi	x9,4
    1296:	03f030ef          	jal	x1,4ad4 <__mulsi3>
    129a:	4782                	c.lwsp	x15,0(x2)
    129c:	fea4ae23          	sw	x10,-4(x9)
    12a0:	fe8796e3          	bne	x15,x8,128c <matrix_mul_const+0x3e>
    12a4:	4722                	c.lwsp	x14,8(x2)
    12a6:	46d2                	c.lwsp	x13,20(x2)
    12a8:	47b2                	c.lwsp	x15,12(x2)
    12aa:	9736                	c.add	x14,x13
    12ac:	c43a                	c.swsp	x14,8(x2)
    12ae:	46f2                	c.lwsp	x13,28(x2)
    12b0:	4742                	c.lwsp	x14,16(x2)
    12b2:	0785                	c.addi	x15,1
    12b4:	c63e                	c.swsp	x15,12(x2)
    12b6:	8f15                	c.sub	x14,x13
    12b8:	c03a                	c.swsp	x14,0(x2)
    12ba:	5702                	c.lwsp	x14,32(x2)
    12bc:	fcf711e3          	bne	x14,x15,127e <matrix_mul_const+0x30>
    12c0:	50b2                	c.lwsp	x1,44(x2)
    12c2:	5422                	c.lwsp	x8,40(x2)
    12c4:	5492                	c.lwsp	x9,36(x2)
    12c6:	6145                	c.addi16sp	x2,48
    12c8:	8082                	c.jr	x1
    12ca:	8082                	c.jr	x1

000012cc <matrix_add_const>:
    12cc:	cd05                	c.beqz	x10,1304 <matrix_add_const+0x38>
    12ce:	40a002b3          	sub	x5,x0,x10
    12d2:	00151693          	slli	x13,x10,0x1
    12d6:	0642                	c.slli	x12,0x10
    12d8:	96ae                	c.add	x13,x11
    12da:	00129393          	slli	x7,x5,0x1
    12de:	8241                	c.srli	x12,0x10
    12e0:	4581                	c.li	x11,0
    12e2:	028a                	c.slli	x5,0x2
    12e4:	00d38333          	add	x6,x7,x13
    12e8:	879a                	c.mv	x15,x6
    12ea:	0007d703          	lhu	x14,0(x15)
    12ee:	0789                	c.addi	x15,2
    12f0:	9732                	c.add	x14,x12
    12f2:	fee79f23          	sh	x14,-2(x15)
    12f6:	fed79ae3          	bne	x15,x13,12ea <matrix_add_const+0x1e>
    12fa:	0585                	c.addi	x11,1
    12fc:	405306b3          	sub	x13,x6,x5
    1300:	feb512e3          	bne	x10,x11,12e4 <matrix_add_const+0x18>
    1304:	8082                	c.jr	x1

00001306 <matrix_mul_vect>:
    1306:	cd3d                	c.beqz	x10,1384 <matrix_mul_vect+0x7e>
    1308:	87aa                	c.mv	x15,x10
    130a:	fd810113          	addi	x2,x2,-40
    130e:	00279713          	slli	x14,x15,0x2
    1312:	852e                	c.mv	x10,x11
    1314:	d022                	c.swsp	x8,32(x2)
    1316:	ce26                	c.swsp	x9,28(x2)
    1318:	8432                	c.mv	x8,x12
    131a:	00179493          	slli	x9,x15,0x1
    131e:	863a                	c.mv	x12,x14
    1320:	4581                	c.li	x11,0
    1322:	c03a                	c.swsp	x14,0(x2)
    1324:	d206                	c.swsp	x1,36(x2)
    1326:	c836                	c.swsp	x13,16(x2)
    1328:	c62a                	c.swsp	x10,12(x2)
    132a:	cc26                	c.swsp	x9,24(x2)
    132c:	205030ef          	jal	x1,4d30 <memset>
    1330:	47b2                	c.lwsp	x15,12(x2)
    1332:	4702                	c.lwsp	x14,0(x2)
    1334:	c422                	c.swsp	x8,8(x2)
    1336:	973e                	c.add	x14,x15
    1338:	47c2                	c.lwsp	x15,16(x2)
    133a:	ca3a                	c.swsp	x14,20(x2)
    133c:	97a6                	c.add	x15,x9
    133e:	c23e                	c.swsp	x15,4(x2)
    1340:	47c2                	c.lwsp	x15,16(x2)
    1342:	4422                	c.lwsp	x8,8(x2)
    1344:	4481                	c.li	x9,0
    1346:	00079583          	lh	x11,0(x15)
    134a:	00041503          	lh	x10,0(x8)
    134e:	0789                	c.addi	x15,2
    1350:	c03e                	c.swsp	x15,0(x2)
    1352:	782030ef          	jal	x1,4ad4 <__mulsi3>
    1356:	4712                	c.lwsp	x14,4(x2)
    1358:	4782                	c.lwsp	x15,0(x2)
    135a:	0409                	c.addi	x8,2
    135c:	94aa                	c.add	x9,x10
    135e:	fef714e3          	bne	x14,x15,1346 <matrix_mul_vect+0x40>
    1362:	4722                	c.lwsp	x14,8(x2)
    1364:	46e2                	c.lwsp	x13,24(x2)
    1366:	47b2                	c.lwsp	x15,12(x2)
    1368:	9736                	c.add	x14,x13
    136a:	c43a                	c.swsp	x14,8(x2)
    136c:	4752                	c.lwsp	x14,20(x2)
    136e:	c384                	c.sw	x9,0(x15)
    1370:	0791                	c.addi	x15,4
    1372:	c63e                	c.swsp	x15,12(x2)
    1374:	fcf716e3          	bne	x14,x15,1340 <matrix_mul_vect+0x3a>
    1378:	5092                	c.lwsp	x1,36(x2)
    137a:	5402                	c.lwsp	x8,32(x2)
    137c:	44f2                	c.lwsp	x9,28(x2)
    137e:	02810113          	addi	x2,x2,40
    1382:	8082                	c.jr	x1
    1384:	8082                	c.jr	x1

00001386 <matrix_mul_matrix>:
    1386:	cd4d                	c.beqz	x10,1440 <matrix_mul_matrix+0xba>
    1388:	fb810113          	addi	x2,x2,-72
    138c:	872a                	c.mv	x14,x10
    138e:	40e007b3          	sub	x15,x0,x14
    1392:	da2a                	c.swsp	x10,52(x2)
    1394:	070a                	c.slli	x14,0x2
    1396:	0506                	c.slli	x10,0x1
    1398:	d43a                	c.swsp	x14,40(x2)
    139a:	00a60733          	add	x14,x12,x10
    139e:	c23a                	c.swsp	x14,4(x2)
    13a0:	00a68733          	add	x14,x13,x10
    13a4:	ce3a                	c.swsp	x14,28(x2)
    13a6:	00179713          	slli	x14,x15,0x1
    13aa:	078a                	c.slli	x15,0x2
    13ac:	c286                	c.swsp	x1,68(x2)
    13ae:	c0a2                	c.swsp	x8,64(x2)
    13b0:	de26                	c.swsp	x9,60(x2)
    13b2:	dc36                	c.swsp	x13,56(x2)
    13b4:	c42a                	c.swsp	x10,8(x2)
    13b6:	d02e                	c.swsp	x11,32(x2)
    13b8:	d63a                	c.swsp	x14,44(x2)
    13ba:	d202                	c.swsp	x0,36(x2)
    13bc:	d83e                	c.swsp	x15,48(x2)
    13be:	5402                	c.lwsp	x8,32(x2)
    13c0:	5622                	c.lwsp	x12,40(x2)
    13c2:	4581                	c.li	x11,0
    13c4:	8522                	c.mv	x10,x8
    13c6:	16b030ef          	jal	x1,4d30 <memset>
    13ca:	57b2                	c.lwsp	x15,44(x2)
    13cc:	4712                	c.lwsp	x14,4(x2)
    13ce:	ca22                	c.swsp	x8,20(x2)
    13d0:	97ba                	c.add	x15,x14
    13d2:	cc3e                	c.swsp	x15,24(x2)
    13d4:	57e2                	c.lwsp	x15,56(x2)
    13d6:	c83e                	c.swsp	x15,16(x2)
    13d8:	44e2                	c.lwsp	x9,24(x2)
    13da:	4401                	c.li	x8,0
    13dc:	4742                	c.lwsp	x14,16(x2)
    13de:	87a2                	c.mv	x15,x8
    13e0:	8426                	c.mv	x8,x9
    13e2:	84be                	c.mv	x9,x15
    13e4:	47a2                	c.lwsp	x15,8(x2)
    13e6:	00071583          	lh	x11,0(x14)
    13ea:	00041503          	lh	x10,0(x8)
    13ee:	973e                	c.add	x14,x15
    13f0:	c03a                	c.swsp	x14,0(x2)
    13f2:	c63a                	c.swsp	x14,12(x2)
    13f4:	6e0030ef          	jal	x1,4ad4 <__mulsi3>
    13f8:	4792                	c.lwsp	x15,4(x2)
    13fa:	0409                	c.addi	x8,2
    13fc:	94aa                	c.add	x9,x10
    13fe:	4702                	c.lwsp	x14,0(x2)
    1400:	fef412e3          	bne	x8,x15,13e4 <matrix_mul_matrix+0x5e>
    1404:	47d2                	c.lwsp	x15,20(x2)
    1406:	4742                	c.lwsp	x14,16(x2)
    1408:	c384                	c.sw	x9,0(x15)
    140a:	0791                	c.addi	x15,4
    140c:	ca3e                	c.swsp	x15,20(x2)
    140e:	47f2                	c.lwsp	x15,28(x2)
    1410:	0709                	c.addi	x14,2
    1412:	c83a                	c.swsp	x14,16(x2)
    1414:	fce792e3          	bne	x15,x14,13d8 <matrix_mul_matrix+0x52>
    1418:	5702                	c.lwsp	x14,32(x2)
    141a:	56a2                	c.lwsp	x13,40(x2)
    141c:	5792                	c.lwsp	x15,36(x2)
    141e:	9736                	c.add	x14,x13
    1420:	d03a                	c.swsp	x14,32(x2)
    1422:	56c2                	c.lwsp	x13,48(x2)
    1424:	4762                	c.lwsp	x14,24(x2)
    1426:	0785                	c.addi	x15,1
    1428:	d23e                	c.swsp	x15,36(x2)
    142a:	8f15                	c.sub	x14,x13
    142c:	c23a                	c.swsp	x14,4(x2)
    142e:	5752                	c.lwsp	x14,52(x2)
    1430:	f8f717e3          	bne	x14,x15,13be <matrix_mul_matrix+0x38>
    1434:	4096                	c.lwsp	x1,68(x2)
    1436:	4406                	c.lwsp	x8,64(x2)
    1438:	54f2                	c.lwsp	x9,60(x2)
    143a:	04810113          	addi	x2,x2,72
    143e:	8082                	c.jr	x1
    1440:	8082                	c.jr	x1

00001442 <matrix_mul_matrix_bitextract>:
    1442:	c579                	c.beqz	x10,1510 <matrix_mul_matrix_bitextract+0xce>
    1444:	fb810113          	addi	x2,x2,-72
    1448:	872a                	c.mv	x14,x10
    144a:	40e007b3          	sub	x15,x0,x14
    144e:	da2a                	c.swsp	x10,52(x2)
    1450:	070a                	c.slli	x14,0x2
    1452:	0506                	c.slli	x10,0x1
    1454:	d43a                	c.swsp	x14,40(x2)
    1456:	00a60733          	add	x14,x12,x10
    145a:	c23a                	c.swsp	x14,4(x2)
    145c:	00a68733          	add	x14,x13,x10
    1460:	ce3a                	c.swsp	x14,28(x2)
    1462:	00179713          	slli	x14,x15,0x1
    1466:	078a                	c.slli	x15,0x2
    1468:	c286                	c.swsp	x1,68(x2)
    146a:	c0a2                	c.swsp	x8,64(x2)
    146c:	de26                	c.swsp	x9,60(x2)
    146e:	dc36                	c.swsp	x13,56(x2)
    1470:	c42a                	c.swsp	x10,8(x2)
    1472:	d02e                	c.swsp	x11,32(x2)
    1474:	d63a                	c.swsp	x14,44(x2)
    1476:	d202                	c.swsp	x0,36(x2)
    1478:	d83e                	c.swsp	x15,48(x2)
    147a:	5402                	c.lwsp	x8,32(x2)
    147c:	5622                	c.lwsp	x12,40(x2)
    147e:	4581                	c.li	x11,0
    1480:	8522                	c.mv	x10,x8
    1482:	0af030ef          	jal	x1,4d30 <memset>
    1486:	57b2                	c.lwsp	x15,44(x2)
    1488:	4712                	c.lwsp	x14,4(x2)
    148a:	ca22                	c.swsp	x8,20(x2)
    148c:	97ba                	c.add	x15,x14
    148e:	cc3e                	c.swsp	x15,24(x2)
    1490:	57e2                	c.lwsp	x15,56(x2)
    1492:	c83e                	c.swsp	x15,16(x2)
    1494:	44e2                	c.lwsp	x9,24(x2)
    1496:	4401                	c.li	x8,0
    1498:	4742                	c.lwsp	x14,16(x2)
    149a:	87a2                	c.mv	x15,x8
    149c:	8426                	c.mv	x8,x9
    149e:	84be                	c.mv	x9,x15
    14a0:	47a2                	c.lwsp	x15,8(x2)
    14a2:	00071583          	lh	x11,0(x14)
    14a6:	00041503          	lh	x10,0(x8)
    14aa:	973e                	c.add	x14,x15
    14ac:	c03a                	c.swsp	x14,0(x2)
    14ae:	c63a                	c.swsp	x14,12(x2)
    14b0:	624030ef          	jal	x1,4ad4 <__mulsi3>
    14b4:	40255613          	srai	x12,x10,0x2
    14b8:	40555593          	srai	x11,x10,0x5
    14bc:	07f5f593          	andi	x11,x11,127
    14c0:	00f67513          	andi	x10,x12,15
    14c4:	610030ef          	jal	x1,4ad4 <__mulsi3>
    14c8:	4792                	c.lwsp	x15,4(x2)
    14ca:	0409                	c.addi	x8,2
    14cc:	94aa                	c.add	x9,x10
    14ce:	4702                	c.lwsp	x14,0(x2)
    14d0:	fcf418e3          	bne	x8,x15,14a0 <matrix_mul_matrix_bitextract+0x5e>
    14d4:	47d2                	c.lwsp	x15,20(x2)
    14d6:	4742                	c.lwsp	x14,16(x2)
    14d8:	c384                	c.sw	x9,0(x15)
    14da:	0791                	c.addi	x15,4
    14dc:	ca3e                	c.swsp	x15,20(x2)
    14de:	47f2                	c.lwsp	x15,28(x2)
    14e0:	0709                	c.addi	x14,2
    14e2:	c83a                	c.swsp	x14,16(x2)
    14e4:	fae798e3          	bne	x15,x14,1494 <matrix_mul_matrix_bitextract+0x52>
    14e8:	5702                	c.lwsp	x14,32(x2)
    14ea:	56a2                	c.lwsp	x13,40(x2)
    14ec:	5792                	c.lwsp	x15,36(x2)
    14ee:	9736                	c.add	x14,x13
    14f0:	d03a                	c.swsp	x14,32(x2)
    14f2:	56c2                	c.lwsp	x13,48(x2)
    14f4:	4762                	c.lwsp	x14,24(x2)
    14f6:	0785                	c.addi	x15,1
    14f8:	d23e                	c.swsp	x15,36(x2)
    14fa:	8f15                	c.sub	x14,x13
    14fc:	c23a                	c.swsp	x14,4(x2)
    14fe:	5752                	c.lwsp	x14,52(x2)
    1500:	f6f71de3          	bne	x14,x15,147a <matrix_mul_matrix_bitextract+0x38>
    1504:	4096                	c.lwsp	x1,68(x2)
    1506:	4406                	c.lwsp	x8,64(x2)
    1508:	54f2                	c.lwsp	x9,60(x2)
    150a:	04810113          	addi	x2,x2,72
    150e:	8082                	c.jr	x1
    1510:	8082                	c.jr	x1

00001512 <barebones_clock>:
    1512:	b0002573          	csrrs	x10,mcycle,x0
    1516:	8082                	c.jr	x1

00001518 <start_time>:
    1518:	b0002773          	csrrs	x14,mcycle,x0
    151c:	6799                	c.lui	x15,0x6
    151e:	6ee7ae23          	sw	x14,1788(x15) # 66fc <start_time_val>
    1522:	8082                	c.jr	x1

00001524 <stop_time>:
    1524:	b0002773          	csrrs	x14,mcycle,x0
    1528:	6799                	c.lui	x15,0x6
    152a:	6ee7ac23          	sw	x14,1784(x15) # 66f8 <stop_time_val>
    152e:	8082                	c.jr	x1

00001530 <get_time>:
    1530:	6799                	c.lui	x15,0x6
    1532:	6f87a503          	lw	x10,1784(x15) # 66f8 <stop_time_val>
    1536:	6799                	c.lui	x15,0x6
    1538:	6fc7a783          	lw	x15,1788(x15) # 66fc <start_time_val>
    153c:	8d1d                	c.sub	x10,x15
    153e:	8082                	c.jr	x1

00001540 <time_in_secs>:
    1540:	1151                	c.addi	x2,-12
    1542:	c406                	c.swsp	x1,8(x2)
    1544:	53e030ef          	jal	x1,4a82 <__floatunsidf>
    1548:	000067b7          	lui	x15,0x6
    154c:	6807a603          	lw	x12,1664(x15) # 6680 <__clz_tab+0x670>
    1550:	6847a683          	lw	x13,1668(x15)
    1554:	780020ef          	jal	x1,3cd4 <__divdf3>
    1558:	40a2                	c.lwsp	x1,8(x2)
    155a:	0131                	c.addi	x2,12
    155c:	8082                	c.jr	x1

0000155e <portable_init>:
    155e:	4785                	c.li	x15,1
    1560:	00f50023          	sb	x15,0(x10)
    1564:	8082                	c.jr	x1

00001566 <portable_fini>:
    1566:	00050023          	sb	x0,0(x10)
    156a:	8082                	c.jr	x1

0000156c <core_init_state>:
    156c:	1131                	c.addi	x2,-20
    156e:	c822                	c.swsp	x8,16(x2)
    1570:	c626                	c.swsp	x9,12(x2)
    1572:	c42a                	c.swsp	x10,8(x2)
    1574:	fff50393          	addi	x7,x10,-1
    1578:	4785                	c.li	x15,1
    157a:	c232                	c.swsp	x12,4(x2)
    157c:	1077ff63          	bgeu	x15,x7,169a <core_init_state+0x12e>
    1580:	00158793          	addi	x15,x11,1
    1584:	07c2                	c.slli	x15,0x10
    1586:	83c1                	c.srli	x15,0x10
    1588:	0077f693          	andi	x13,x15,7
    158c:	16f5                	c.addi	x13,-3
    158e:	06c2                	c.slli	x13,0x10
    1590:	4501                	c.li	x10,0
    1592:	6319                	c.lui	x6,0x6
    1594:	6299                	c.lui	x5,0x6
    1596:	0037d613          	srli	x12,x15,0x3
    159a:	4591                	c.li	x11,4
    159c:	82c1                	c.srli	x13,0x10
    159e:	d3c30313          	addi	x6,x6,-708 # 5d3c <intpat>
    15a2:	d2828293          	addi	x5,x5,-728 # 5d28 <__init_array_end+0x2>
    15a6:	02c00413          	addi	x8,x0,44
    15aa:	872a                	c.mv	x14,x10
    15ac:	8a0d                	c.andi	x12,3
    15ae:	08d5e863          	bltu	x11,x13,163e <core_init_state+0xd2>
    15b2:	068a                	c.slli	x13,0x2
    15b4:	9696                	c.add	x13,x5
    15b6:	4294                	c.lw	x13,0(x13)
    15b8:	060a                	c.slli	x12,0x2
    15ba:	961a                	c.add	x12,x6
    15bc:	0785                	c.addi	x15,1
    15be:	8682                	c.jr	x13
    15c0:	07c2                	c.slli	x15,0x10
    15c2:	00970693          	addi	x13,x14,9
    15c6:	4a10                	c.lw	x12,16(x12)
    15c8:	83c1                	c.srli	x15,0x10
    15ca:	0876fd63          	bgeu	x13,x7,1664 <core_init_state+0xf8>
    15ce:	44a1                	c.li	x9,8
    15d0:	00064503          	lbu	x10,0(x12)
    15d4:	c02a                	c.swsp	x10,0(x2)
    15d6:	4512                	c.lwsp	x10,4(x2)
    15d8:	972a                	c.add	x14,x10
    15da:	4502                	c.lwsp	x10,0(x2)
    15dc:	00a70023          	sb	x10,0(x14)
    15e0:	00164503          	lbu	x10,1(x12)
    15e4:	00a700a3          	sb	x10,1(x14)
    15e8:	00264503          	lbu	x10,2(x12)
    15ec:	00a70123          	sb	x10,2(x14)
    15f0:	00364503          	lbu	x10,3(x12)
    15f4:	00a701a3          	sb	x10,3(x14)
    15f8:	02b48563          	beq	x9,x11,1622 <core_init_state+0xb6>
    15fc:	00464503          	lbu	x10,4(x12)
    1600:	00a70223          	sb	x10,4(x14)
    1604:	00564503          	lbu	x10,5(x12)
    1608:	00a702a3          	sb	x10,5(x14)
    160c:	00664503          	lbu	x10,6(x12)
    1610:	00a70323          	sb	x10,6(x14)
    1614:	4521                	c.li	x10,8
    1616:	00a49663          	bne	x9,x10,1622 <core_init_state+0xb6>
    161a:	00764603          	lbu	x12,7(x12)
    161e:	00c703a3          	sb	x12,7(x14)
    1622:	9726                	c.add	x14,x9
    1624:	00870023          	sb	x8,0(x14)
    1628:	8736                	c.mv	x14,x13
    162a:	0077f693          	andi	x13,x15,7
    162e:	16f5                	c.addi	x13,-3
    1630:	06c2                	c.slli	x13,0x10
    1632:	0037d613          	srli	x12,x15,0x3
    1636:	82c1                	c.srli	x13,0x10
    1638:	8a0d                	c.andi	x12,3
    163a:	f6d5fce3          	bgeu	x11,x13,15b2 <core_init_state+0x46>
    163e:	060a                	c.slli	x12,0x2
    1640:	0785                	c.addi	x15,1
    1642:	961a                	c.add	x12,x6
    1644:	07c2                	c.slli	x15,0x10
    1646:	00570693          	addi	x13,x14,5
    164a:	4210                	c.lw	x12,0(x12)
    164c:	83c1                	c.srli	x15,0x10
    164e:	0076fb63          	bgeu	x13,x7,1664 <core_init_state+0xf8>
    1652:	4491                	c.li	x9,4
    1654:	bfb5                	c.j	15d0 <core_init_state+0x64>
    1656:	07c2                	c.slli	x15,0x10
    1658:	00970693          	addi	x13,x14,9
    165c:	5210                	c.lw	x12,32(x12)
    165e:	83c1                	c.srli	x15,0x10
    1660:	f676e7e3          	bltu	x13,x7,15ce <core_init_state+0x62>
    1664:	47a2                	c.lwsp	x15,8(x2)
    1666:	853a                	c.mv	x10,x14
    1668:	02f77563          	bgeu	x14,x15,1692 <core_init_state+0x126>
    166c:	47a2                	c.lwsp	x15,8(x2)
    166e:	4442                	c.lwsp	x8,16(x2)
    1670:	44b2                	c.lwsp	x9,12(x2)
    1672:	40a78633          	sub	x12,x15,x10
    1676:	4792                	c.lwsp	x15,4(x2)
    1678:	4581                	c.li	x11,0
    167a:	953e                	c.add	x10,x15
    167c:	0151                	c.addi	x2,20
    167e:	6b20306f          	jal	x0,4d30 <memset>
    1682:	07c2                	c.slli	x15,0x10
    1684:	00970693          	addi	x13,x14,9
    1688:	5a10                	c.lw	x12,48(x12)
    168a:	83c1                	c.srli	x15,0x10
    168c:	f476e1e3          	bltu	x13,x7,15ce <core_init_state+0x62>
    1690:	bfd1                	c.j	1664 <core_init_state+0xf8>
    1692:	4442                	c.lwsp	x8,16(x2)
    1694:	44b2                	c.lwsp	x9,12(x2)
    1696:	0151                	c.addi	x2,20
    1698:	8082                	c.jr	x1
    169a:	4501                	c.li	x10,0
    169c:	bfc1                	c.j	166c <core_init_state+0x100>

0000169e <core_state_transition>:
    169e:	411c                	c.lw	x15,0(x10)
    16a0:	862a                	c.mv	x12,x10
    16a2:	4501                	c.li	x10,0
    16a4:	0007c683          	lbu	x13,0(x15)
    16a8:	873e                	c.mv	x14,x15
    16aa:	c6dd                	c.beqz	x13,1758 <core_state_transition+0xba>
    16ac:	02c00313          	addi	x6,x0,44
    16b0:	00178713          	addi	x14,x15,1
    16b4:	20668363          	beq	x13,x6,18ba <core_state_transition+0x21c>
    16b8:	0005a383          	lw	x7,0(x11)
    16bc:	fd068513          	addi	x10,x13,-48
    16c0:	0ff57513          	andi	x10,x10,255
    16c4:	42a5                	c.li	x5,9
    16c6:	0385                	c.addi	x7,1
    16c8:	08a2ea63          	bltu	x5,x10,175c <core_state_transition+0xbe>
    16cc:	0075a023          	sw	x7,0(x11)
    16d0:	0017c683          	lbu	x13,1(x15)
    16d4:	10068663          	beq	x13,x0,17e0 <core_state_transition+0x142>
    16d8:	0789                	c.addi	x15,2
    16da:	10668263          	beq	x13,x6,17de <core_state_transition+0x140>
    16de:	fd068513          	addi	x10,x13,-48
    16e2:	02e00313          	addi	x6,x0,46
    16e6:	42a5                	c.li	x5,9
    16e8:	02c00393          	addi	x7,x0,44
    16ec:	0ff57513          	andi	x10,x10,255
    16f0:	02668363          	beq	x13,x6,1716 <core_state_transition+0x78>
    16f4:	08a2e863          	bltu	x5,x10,1784 <core_state_transition+0xe6>
    16f8:	00174683          	lbu	x13,1(x14)
    16fc:	00178513          	addi	x10,x15,1
    1700:	873e                	c.mv	x14,x15
    1702:	cef1                	c.beqz	x13,17de <core_state_transition+0x140>
    1704:	1c768d63          	beq	x13,x7,18de <core_state_transition+0x240>
    1708:	87aa                	c.mv	x15,x10
    170a:	fd068513          	addi	x10,x13,-48
    170e:	0ff57513          	andi	x10,x10,255
    1712:	fe6691e3          	bne	x13,x6,16f4 <core_state_transition+0x56>
    1716:	4994                	c.lw	x13,16(x11)
    1718:	0685                	c.addi	x13,1
    171a:	c994                	c.sw	x13,16(x11)
    171c:	00174683          	lbu	x13,1(x14)
    1720:	1a068c63          	beq	x13,x0,18d8 <core_state_transition+0x23a>
    1724:	02c00713          	addi	x14,x0,44
    1728:	00178513          	addi	x10,x15,1
    172c:	18e68463          	beq	x13,x14,18b4 <core_state_transition+0x216>
    1730:	04500313          	addi	x6,x0,69
    1734:	42a5                	c.li	x5,9
    1736:	02c00393          	addi	x7,x0,44
    173a:	fd068713          	addi	x14,x13,-48
    173e:	0df6f693          	andi	x13,x13,223
    1742:	0ff77713          	andi	x14,x14,255
    1746:	08668f63          	beq	x13,x6,17e4 <core_state_transition+0x146>
    174a:	12e2f663          	bgeu	x5,x14,1876 <core_state_transition+0x1d8>
    174e:	49dc                	c.lw	x15,20(x11)
    1750:	872a                	c.mv	x14,x10
    1752:	4505                	c.li	x10,1
    1754:	0785                	c.addi	x15,1
    1756:	c9dc                	c.sw	x15,20(x11)
    1758:	c218                	c.sw	x14,0(x12)
    175a:	8082                	c.jr	x1
    175c:	02b00513          	addi	x10,x0,43
    1760:	02a68a63          	beq	x13,x10,1794 <core_state_transition+0xf6>
    1764:	02d00513          	addi	x10,x0,45
    1768:	02a68663          	beq	x13,x10,1794 <core_state_transition+0xf6>
    176c:	02e00513          	addi	x10,x0,46
    1770:	10a68d63          	beq	x13,x10,188a <core_state_transition+0x1ec>
    1774:	41dc                	c.lw	x15,4(x11)
    1776:	0075a023          	sw	x7,0(x11)
    177a:	4505                	c.li	x10,1
    177c:	0785                	c.addi	x15,1
    177e:	c1dc                	c.sw	x15,4(x11)
    1780:	c218                	c.sw	x14,0(x12)
    1782:	8082                	c.jr	x1
    1784:	4994                	c.lw	x13,16(x11)
    1786:	873e                	c.mv	x14,x15
    1788:	4505                	c.li	x10,1
    178a:	00168793          	addi	x15,x13,1
    178e:	c99c                	c.sw	x15,16(x11)
    1790:	c218                	c.sw	x14,0(x12)
    1792:	8082                	c.jr	x1
    1794:	0075a023          	sw	x7,0(x11)
    1798:	0017c283          	lbu	x5,1(x15)
    179c:	12028963          	beq	x5,x0,18ce <core_state_transition+0x230>
    17a0:	00278713          	addi	x14,x15,2
    17a4:	12628563          	beq	x5,x6,18ce <core_state_transition+0x230>
    17a8:	4588                	c.lw	x10,8(x11)
    17aa:	fd028693          	addi	x13,x5,-48
    17ae:	0ff6f693          	andi	x13,x13,255
    17b2:	4325                	c.li	x6,9
    17b4:	0505                	c.addi	x10,1
    17b6:	00d37a63          	bgeu	x6,x13,17ca <core_state_transition+0x12c>
    17ba:	02e00693          	addi	x13,x0,46
    17be:	0ed28163          	beq	x5,x13,18a0 <core_state_transition+0x202>
    17c2:	c588                	c.sw	x10,8(x11)
    17c4:	c218                	c.sw	x14,0(x12)
    17c6:	4505                	c.li	x10,1
    17c8:	8082                	c.jr	x1
    17ca:	c588                	c.sw	x10,8(x11)
    17cc:	0027c683          	lbu	x13,2(x15)
    17d0:	ca81                	c.beqz	x13,17e0 <core_state_transition+0x142>
    17d2:	02c00513          	addi	x10,x0,44
    17d6:	00170793          	addi	x15,x14,1
    17da:	f0a692e3          	bne	x13,x10,16de <core_state_transition+0x40>
    17de:	873e                	c.mv	x14,x15
    17e0:	4511                	c.li	x10,4
    17e2:	bf9d                	c.j	1758 <core_state_transition+0xba>
    17e4:	49d8                	c.lw	x14,20(x11)
    17e6:	0705                	c.addi	x14,1
    17e8:	c9d8                	c.sw	x14,20(x11)
    17ea:	0017c783          	lbu	x15,1(x15)
    17ee:	cfe9                	c.beqz	x15,18c8 <core_state_transition+0x22a>
    17f0:	02c00313          	addi	x6,x0,44
    17f4:	00150713          	addi	x14,x10,1
    17f8:	0c678963          	beq	x15,x6,18ca <core_state_transition+0x22c>
    17fc:	45d4                	c.lw	x13,12(x11)
    17fe:	fd578793          	addi	x15,x15,-43
    1802:	0fd7f793          	andi	x15,x15,253
    1806:	0685                	c.addi	x13,1
    1808:	c5d4                	c.sw	x13,12(x11)
    180a:	c781                	c.beqz	x15,1812 <core_state_transition+0x174>
    180c:	4505                	c.li	x10,1
    180e:	c218                	c.sw	x14,0(x12)
    1810:	8082                	c.jr	x1
    1812:	00154783          	lbu	x15,1(x10)
    1816:	c7dd                	c.beqz	x15,18c4 <core_state_transition+0x226>
    1818:	00250713          	addi	x14,x10,2
    181c:	0a678463          	beq	x15,x6,18c4 <core_state_transition+0x226>
    1820:	4d94                	c.lw	x13,24(x11)
    1822:	fd078793          	addi	x15,x15,-48
    1826:	0ff7f793          	andi	x15,x15,255
    182a:	0685                	c.addi	x13,1
    182c:	42a5                	c.li	x5,9
    182e:	cd94                	c.sw	x13,24(x11)
    1830:	fcf2eee3          	bltu	x5,x15,180c <core_state_transition+0x16e>
    1834:	00254683          	lbu	x13,2(x10)
    1838:	c6c1                	c.beqz	x13,18c0 <core_state_transition+0x222>
    183a:	00350793          	addi	x15,x10,3
    183e:	08668063          	beq	x13,x6,18be <core_state_transition+0x220>
    1842:	4525                	c.li	x10,9
    1844:	02c00293          	addi	x5,x0,44
    1848:	fd068693          	addi	x13,x13,-48
    184c:	0ff6f693          	andi	x13,x13,255
    1850:	00d57963          	bgeu	x10,x13,1862 <core_state_transition+0x1c4>
    1854:	41d4                	c.lw	x13,4(x11)
    1856:	873e                	c.mv	x14,x15
    1858:	4505                	c.li	x10,1
    185a:	00168793          	addi	x15,x13,1
    185e:	c1dc                	c.sw	x15,4(x11)
    1860:	bde5                	c.j	1758 <core_state_transition+0xba>
    1862:	00174683          	lbu	x13,1(x14)
    1866:	00178313          	addi	x6,x15,1
    186a:	873e                	c.mv	x14,x15
    186c:	caa9                	c.beqz	x13,18be <core_state_transition+0x220>
    186e:	06568263          	beq	x13,x5,18d2 <core_state_transition+0x234>
    1872:	879a                	c.mv	x15,x6
    1874:	bfd1                	c.j	1848 <core_state_transition+0x1aa>
    1876:	0017c683          	lbu	x13,1(x15)
    187a:	00150713          	addi	x14,x10,1
    187e:	87aa                	c.mv	x15,x10
    1880:	ca95                	c.beqz	x13,18b4 <core_state_transition+0x216>
    1882:	02768a63          	beq	x13,x7,18b6 <core_state_transition+0x218>
    1886:	853a                	c.mv	x10,x14
    1888:	bd4d                	c.j	173a <core_state_transition+0x9c>
    188a:	0075a023          	sw	x7,0(x11)
    188e:	0017c683          	lbu	x13,1(x15)
    1892:	c295                	c.beqz	x13,18b6 <core_state_transition+0x218>
    1894:	00278513          	addi	x10,x15,2
    1898:	00668e63          	beq	x13,x6,18b4 <core_state_transition+0x216>
    189c:	87ba                	c.mv	x15,x14
    189e:	bd49                	c.j	1730 <core_state_transition+0x92>
    18a0:	c588                	c.sw	x10,8(x11)
    18a2:	0027c683          	lbu	x13,2(x15)
    18a6:	ca81                	c.beqz	x13,18b6 <core_state_transition+0x218>
    18a8:	02c00793          	addi	x15,x0,44
    18ac:	00170513          	addi	x10,x14,1
    18b0:	fef696e3          	bne	x13,x15,189c <core_state_transition+0x1fe>
    18b4:	872a                	c.mv	x14,x10
    18b6:	4515                	c.li	x10,5
    18b8:	b545                	c.j	1758 <core_state_transition+0xba>
    18ba:	4501                	c.li	x10,0
    18bc:	bd71                	c.j	1758 <core_state_transition+0xba>
    18be:	873e                	c.mv	x14,x15
    18c0:	451d                	c.li	x10,7
    18c2:	bd59                	c.j	1758 <core_state_transition+0xba>
    18c4:	4519                	c.li	x10,6
    18c6:	bd49                	c.j	1758 <core_state_transition+0xba>
    18c8:	872a                	c.mv	x14,x10
    18ca:	450d                	c.li	x10,3
    18cc:	b571                	c.j	1758 <core_state_transition+0xba>
    18ce:	4509                	c.li	x10,2
    18d0:	b561                	c.j	1758 <core_state_transition+0xba>
    18d2:	871a                	c.mv	x14,x6
    18d4:	451d                	c.li	x10,7
    18d6:	b549                	c.j	1758 <core_state_transition+0xba>
    18d8:	873e                	c.mv	x14,x15
    18da:	4515                	c.li	x10,5
    18dc:	bdb5                	c.j	1758 <core_state_transition+0xba>
    18de:	872a                	c.mv	x14,x10
    18e0:	4511                	c.li	x10,4
    18e2:	bd9d                	c.j	1758 <core_state_transition+0xba>

000018e4 <core_bench_state>:
    18e4:	f9c10113          	addi	x2,x2,-100
    18e8:	cca6                	c.swsp	x9,88(x2)
    18ea:	d086                	c.swsp	x1,96(x2)
    18ec:	cea2                	c.swsp	x8,92(x2)
    18ee:	84ae                	c.mv	x9,x11
    18f0:	0005c583          	lbu	x11,0(x11)
    18f4:	ca26                	c.swsp	x9,20(x2)
    18f6:	dc02                	c.swsp	x0,56(x2)
    18f8:	de02                	c.swsp	x0,60(x2)
    18fa:	c082                	c.swsp	x0,64(x2)
    18fc:	c282                	c.swsp	x0,68(x2)
    18fe:	c482                	c.swsp	x0,72(x2)
    1900:	c682                	c.swsp	x0,76(x2)
    1902:	c882                	c.swsp	x0,80(x2)
    1904:	ca82                	c.swsp	x0,84(x2)
    1906:	cc02                	c.swsp	x0,24(x2)
    1908:	ce02                	c.swsp	x0,28(x2)
    190a:	d002                	c.swsp	x0,32(x2)
    190c:	d202                	c.swsp	x0,36(x2)
    190e:	d402                	c.swsp	x0,40(x2)
    1910:	d602                	c.swsp	x0,44(x2)
    1912:	d802                	c.swsp	x0,48(x2)
    1914:	da02                	c.swsp	x0,52(x2)
    1916:	c82a                	c.swsp	x10,16(x2)
    1918:	c432                	c.swsp	x12,8(x2)
    191a:	c636                	c.swsp	x13,12(x2)
    191c:	c03a                	c.swsp	x14,0(x2)
    191e:	c23e                	c.swsp	x15,4(x2)
    1920:	0e058d63          	beq	x11,x0,1a1a <core_bench_state+0x136>
    1924:	0840                	c.addi4spn	x8,x2,20
    1926:	182c                	c.addi4spn	x11,x2,56
    1928:	8522                	c.mv	x10,x8
    192a:	3b95                	c.jal	169e <core_state_transition>
    192c:	08bc                	c.addi4spn	x15,x2,88
    192e:	050a                	c.slli	x10,0x2
    1930:	953e                	c.add	x10,x15
    1932:	4752                	c.lwsp	x14,20(x2)
    1934:	fc052783          	lw	x15,-64(x10)
    1938:	00074703          	lbu	x14,0(x14)
    193c:	0785                	c.addi	x15,1
    193e:	fcf52023          	sw	x15,-64(x10)
    1942:	f375                	c.bnez	x14,1926 <core_bench_state+0x42>
    1944:	47c2                	c.lwsp	x15,16(x2)
    1946:	ca26                	c.swsp	x9,20(x2)
    1948:	0004c583          	lbu	x11,0(x9)
    194c:	00f48733          	add	x14,x9,x15
    1950:	0ce4fa63          	bgeu	x9,x14,1a24 <core_bench_state+0x140>
    1954:	46a2                	c.lwsp	x13,8(x2)
    1956:	02c00613          	addi	x12,x0,44
    195a:	87a6                	c.mv	x15,x9
    195c:	8ead                	c.xor	x13,x11
    195e:	02c58063          	beq	x11,x12,197e <core_bench_state+0x9a>
    1962:	00d78023          	sb	x13,0(x15)
    1966:	47d2                	c.lwsp	x15,20(x2)
    1968:	4682                	c.lwsp	x13,0(x2)
    196a:	97b6                	c.add	x15,x13
    196c:	ca3e                	c.swsp	x15,20(x2)
    196e:	00e7fd63          	bgeu	x15,x14,1988 <core_bench_state+0xa4>
    1972:	0007c583          	lbu	x11,0(x15)
    1976:	46a2                	c.lwsp	x13,8(x2)
    1978:	8ead                	c.xor	x13,x11
    197a:	fec594e3          	bne	x11,x12,1962 <core_bench_state+0x7e>
    197e:	4682                	c.lwsp	x13,0(x2)
    1980:	97b6                	c.add	x15,x13
    1982:	ca3e                	c.swsp	x15,20(x2)
    1984:	fee7e7e3          	bltu	x15,x14,1972 <core_bench_state+0x8e>
    1988:	0004c783          	lbu	x15,0(x9)
    198c:	ca26                	c.swsp	x9,20(x2)
    198e:	0840                	c.addi4spn	x8,x2,20
    1990:	c78d                	c.beqz	x15,19ba <core_bench_state+0xd6>
    1992:	182c                	c.addi4spn	x11,x2,56
    1994:	8522                	c.mv	x10,x8
    1996:	c43a                	c.swsp	x14,8(x2)
    1998:	3319                	c.jal	169e <core_state_transition>
    199a:	08bc                	c.addi4spn	x15,x2,88
    199c:	050a                	c.slli	x10,0x2
    199e:	953e                	c.add	x10,x15
    19a0:	46d2                	c.lwsp	x13,20(x2)
    19a2:	fc052783          	lw	x15,-64(x10)
    19a6:	4722                	c.lwsp	x14,8(x2)
    19a8:	0006c683          	lbu	x13,0(x13)
    19ac:	0785                	c.addi	x15,1
    19ae:	fcf52023          	sw	x15,-64(x10)
    19b2:	f2e5                	c.bnez	x13,1992 <core_bench_state+0xae>
    19b4:	ca26                	c.swsp	x9,20(x2)
    19b6:	02e4f363          	bgeu	x9,x14,19dc <core_bench_state+0xf8>
    19ba:	02c00613          	addi	x12,x0,44
    19be:	0004c783          	lbu	x15,0(x9)
    19c2:	46b2                	c.lwsp	x13,12(x2)
    19c4:	8ebd                	c.xor	x13,x15
    19c6:	04c78463          	beq	x15,x12,1a0e <core_bench_state+0x12a>
    19ca:	00d48023          	sb	x13,0(x9)
    19ce:	4352                	c.lwsp	x6,20(x2)
    19d0:	4782                	c.lwsp	x15,0(x2)
    19d2:	00f304b3          	add	x9,x6,x15
    19d6:	ca26                	c.swsp	x9,20(x2)
    19d8:	fee4e3e3          	bltu	x9,x14,19be <core_bench_state+0xda>
    19dc:	4481                	c.li	x9,0
    19de:	02000413          	addi	x8,x0,32
    19e2:	083c                	c.addi4spn	x15,x2,24
    19e4:	00978733          	add	x14,x15,x9
    19e8:	4308                	c.lw	x10,0(x14)
    19ea:	4592                	c.lwsp	x11,4(x2)
    19ec:	244d                	c.jal	1c8e <crcu32>
    19ee:	183c                	c.addi4spn	x15,x2,56
    19f0:	00978733          	add	x14,x15,x9
    19f4:	85aa                	c.mv	x11,x10
    19f6:	4308                	c.lw	x10,0(x14)
    19f8:	0491                	c.addi	x9,4
    19fa:	2c51                	c.jal	1c8e <crcu32>
    19fc:	c22a                	c.swsp	x10,4(x2)
    19fe:	fe8492e3          	bne	x9,x8,19e2 <core_bench_state+0xfe>
    1a02:	5086                	c.lwsp	x1,96(x2)
    1a04:	4476                	c.lwsp	x8,92(x2)
    1a06:	44e6                	c.lwsp	x9,88(x2)
    1a08:	06410113          	addi	x2,x2,100
    1a0c:	8082                	c.jr	x1
    1a0e:	4782                	c.lwsp	x15,0(x2)
    1a10:	94be                	c.add	x9,x15
    1a12:	ca26                	c.swsp	x9,20(x2)
    1a14:	fae4e5e3          	bltu	x9,x14,19be <core_bench_state+0xda>
    1a18:	b7d1                	c.j	19dc <core_bench_state+0xf8>
    1a1a:	00a48733          	add	x14,x9,x10
    1a1e:	f2e4ebe3          	bltu	x9,x14,1954 <core_bench_state+0x70>
    1a22:	bf6d                	c.j	19dc <core_bench_state+0xf8>
    1a24:	f5bd                	c.bnez	x11,1992 <core_bench_state+0xae>
    1a26:	bf5d                	c.j	19dc <core_bench_state+0xf8>

00001a28 <get_seed_32>:
    1a28:	4795                	c.li	x15,5
    1a2a:	02a7ed63          	bltu	x15,x10,1a64 <get_seed_32+0x3c>
    1a2e:	6799                	c.lui	x15,0x6
    1a30:	d7c78793          	addi	x15,x15,-644 # 5d7c <errpat+0x10>
    1a34:	050a                	c.slli	x10,0x2
    1a36:	953e                	c.add	x10,x15
    1a38:	411c                	c.lw	x15,0(x10)
    1a3a:	8782                	c.jr	x15
    1a3c:	6799                	c.lui	x15,0x6
    1a3e:	7007a503          	lw	x10,1792(x15) # 6700 <seed5_volatile>
    1a42:	8082                	c.jr	x1
    1a44:	6799                	c.lui	x15,0x6
    1a46:	7087a503          	lw	x10,1800(x15) # 6708 <seed1_volatile>
    1a4a:	8082                	c.jr	x1
    1a4c:	6799                	c.lui	x15,0x6
    1a4e:	7047a503          	lw	x10,1796(x15) # 6704 <seed2_volatile>
    1a52:	8082                	c.jr	x1
    1a54:	6799                	c.lui	x15,0x6
    1a56:	6a47a503          	lw	x10,1700(x15) # 66a4 <seed3_volatile>
    1a5a:	8082                	c.jr	x1
    1a5c:	6799                	c.lui	x15,0x6
    1a5e:	6a07a503          	lw	x10,1696(x15) # 66a0 <seed4_volatile>
    1a62:	8082                	c.jr	x1
    1a64:	4501                	c.li	x10,0
    1a66:	8082                	c.jr	x1

00001a68 <crcu8>:
    1a68:	00b546b3          	xor	x13,x10,x11
    1a6c:	8a85                	c.andi	x13,1
    1a6e:	00155713          	srli	x14,x10,0x1
    1a72:	0015d793          	srli	x15,x11,0x1
    1a76:	c691                	c.beqz	x13,1a82 <crcu8+0x1a>
    1a78:	76e9                	c.lui	x13,0xffffa
    1a7a:	0685                	c.addi	x13,1
    1a7c:	8fb5                	c.xor	x15,x13
    1a7e:	07c2                	c.slli	x15,0x10
    1a80:	83c1                	c.srli	x15,0x10
    1a82:	8f3d                	c.xor	x14,x15
    1a84:	8b05                	c.andi	x14,1
    1a86:	00255693          	srli	x13,x10,0x2
    1a8a:	8385                	c.srli	x15,0x1
    1a8c:	c711                	c.beqz	x14,1a98 <crcu8+0x30>
    1a8e:	7769                	c.lui	x14,0xffffa
    1a90:	0705                	c.addi	x14,1
    1a92:	8fb9                	c.xor	x15,x14
    1a94:	07c2                	c.slli	x15,0x10
    1a96:	83c1                	c.srli	x15,0x10
    1a98:	8ebd                	c.xor	x13,x15
    1a9a:	8a85                	c.andi	x13,1
    1a9c:	00355713          	srli	x14,x10,0x3
    1aa0:	8385                	c.srli	x15,0x1
    1aa2:	c691                	c.beqz	x13,1aae <crcu8+0x46>
    1aa4:	76e9                	c.lui	x13,0xffffa
    1aa6:	0685                	c.addi	x13,1
    1aa8:	8fb5                	c.xor	x15,x13
    1aaa:	07c2                	c.slli	x15,0x10
    1aac:	83c1                	c.srli	x15,0x10
    1aae:	8f3d                	c.xor	x14,x15
    1ab0:	8b05                	c.andi	x14,1
    1ab2:	00455693          	srli	x13,x10,0x4
    1ab6:	8385                	c.srli	x15,0x1
    1ab8:	c711                	c.beqz	x14,1ac4 <crcu8+0x5c>
    1aba:	7769                	c.lui	x14,0xffffa
    1abc:	0705                	c.addi	x14,1
    1abe:	8fb9                	c.xor	x15,x14
    1ac0:	07c2                	c.slli	x15,0x10
    1ac2:	83c1                	c.srli	x15,0x10
    1ac4:	8ebd                	c.xor	x13,x15
    1ac6:	8a85                	c.andi	x13,1
    1ac8:	00555713          	srli	x14,x10,0x5
    1acc:	8385                	c.srli	x15,0x1
    1ace:	c691                	c.beqz	x13,1ada <crcu8+0x72>
    1ad0:	76e9                	c.lui	x13,0xffffa
    1ad2:	0685                	c.addi	x13,1
    1ad4:	8fb5                	c.xor	x15,x13
    1ad6:	07c2                	c.slli	x15,0x10
    1ad8:	83c1                	c.srli	x15,0x10
    1ada:	8f3d                	c.xor	x14,x15
    1adc:	8b05                	c.andi	x14,1
    1ade:	00655693          	srli	x13,x10,0x6
    1ae2:	8385                	c.srli	x15,0x1
    1ae4:	c711                	c.beqz	x14,1af0 <crcu8+0x88>
    1ae6:	7769                	c.lui	x14,0xffffa
    1ae8:	0705                	c.addi	x14,1
    1aea:	8fb9                	c.xor	x15,x14
    1aec:	07c2                	c.slli	x15,0x10
    1aee:	83c1                	c.srli	x15,0x10
    1af0:	8ebd                	c.xor	x13,x15
    1af2:	8a85                	c.andi	x13,1
    1af4:	00755713          	srli	x14,x10,0x7
    1af8:	8385                	c.srli	x15,0x1
    1afa:	c691                	c.beqz	x13,1b06 <crcu8+0x9e>
    1afc:	76e9                	c.lui	x13,0xffffa
    1afe:	0685                	c.addi	x13,1
    1b00:	8fb5                	c.xor	x15,x13
    1b02:	07c2                	c.slli	x15,0x10
    1b04:	83c1                	c.srli	x15,0x10
    1b06:	0017f693          	andi	x13,x15,1
    1b0a:	0017d513          	srli	x10,x15,0x1
    1b0e:	00e68863          	beq	x13,x14,1b1e <crcu8+0xb6>
    1b12:	77e9                	c.lui	x15,0xffffa
    1b14:	0785                	c.addi	x15,1
    1b16:	8fa9                	c.xor	x15,x10
    1b18:	01079513          	slli	x10,x15,0x10
    1b1c:	8141                	c.srli	x10,0x10
    1b1e:	8082                	c.jr	x1

00001b20 <crcu16>:
    1b20:	00a5c633          	xor	x12,x11,x10
    1b24:	0ff57713          	andi	x14,x10,255
    1b28:	8a05                	c.andi	x12,1
    1b2a:	00175693          	srli	x13,x14,0x1
    1b2e:	0015d793          	srli	x15,x11,0x1
    1b32:	c611                	c.beqz	x12,1b3e <crcu16+0x1e>
    1b34:	7669                	c.lui	x12,0xffffa
    1b36:	0605                	c.addi	x12,1
    1b38:	8fb1                	c.xor	x15,x12
    1b3a:	07c2                	c.slli	x15,0x10
    1b3c:	83c1                	c.srli	x15,0x10
    1b3e:	8ebd                	c.xor	x13,x15
    1b40:	0016f613          	andi	x12,x13,1
    1b44:	8385                	c.srli	x15,0x1
    1b46:	00275693          	srli	x13,x14,0x2
    1b4a:	c611                	c.beqz	x12,1b56 <crcu16+0x36>
    1b4c:	7669                	c.lui	x12,0xffffa
    1b4e:	0605                	c.addi	x12,1
    1b50:	8fb1                	c.xor	x15,x12
    1b52:	07c2                	c.slli	x15,0x10
    1b54:	83c1                	c.srli	x15,0x10
    1b56:	8ebd                	c.xor	x13,x15
    1b58:	8a85                	c.andi	x13,1
    1b5a:	00375613          	srli	x12,x14,0x3
    1b5e:	8385                	c.srli	x15,0x1
    1b60:	c691                	c.beqz	x13,1b6c <crcu16+0x4c>
    1b62:	76e9                	c.lui	x13,0xffffa
    1b64:	0685                	c.addi	x13,1
    1b66:	8fb5                	c.xor	x15,x13
    1b68:	07c2                	c.slli	x15,0x10
    1b6a:	83c1                	c.srli	x15,0x10
    1b6c:	8e3d                	c.xor	x12,x15
    1b6e:	8a05                	c.andi	x12,1
    1b70:	00475693          	srli	x13,x14,0x4
    1b74:	8385                	c.srli	x15,0x1
    1b76:	c611                	c.beqz	x12,1b82 <crcu16+0x62>
    1b78:	7669                	c.lui	x12,0xffffa
    1b7a:	0605                	c.addi	x12,1
    1b7c:	8fb1                	c.xor	x15,x12
    1b7e:	07c2                	c.slli	x15,0x10
    1b80:	83c1                	c.srli	x15,0x10
    1b82:	8ebd                	c.xor	x13,x15
    1b84:	8a85                	c.andi	x13,1
    1b86:	00575613          	srli	x12,x14,0x5
    1b8a:	8385                	c.srli	x15,0x1
    1b8c:	c691                	c.beqz	x13,1b98 <crcu16+0x78>
    1b8e:	76e9                	c.lui	x13,0xffffa
    1b90:	0685                	c.addi	x13,1
    1b92:	8fb5                	c.xor	x15,x13
    1b94:	07c2                	c.slli	x15,0x10
    1b96:	83c1                	c.srli	x15,0x10
    1b98:	8e3d                	c.xor	x12,x15
    1b9a:	8a05                	c.andi	x12,1
    1b9c:	00675693          	srli	x13,x14,0x6
    1ba0:	8385                	c.srli	x15,0x1
    1ba2:	c611                	c.beqz	x12,1bae <crcu16+0x8e>
    1ba4:	7669                	c.lui	x12,0xffffa
    1ba6:	0605                	c.addi	x12,1
    1ba8:	8fb1                	c.xor	x15,x12
    1baa:	07c2                	c.slli	x15,0x10
    1bac:	83c1                	c.srli	x15,0x10
    1bae:	8ebd                	c.xor	x13,x15
    1bb0:	8a85                	c.andi	x13,1
    1bb2:	831d                	c.srli	x14,0x7
    1bb4:	8385                	c.srli	x15,0x1
    1bb6:	c691                	c.beqz	x13,1bc2 <crcu16+0xa2>
    1bb8:	76e9                	c.lui	x13,0xffffa
    1bba:	0685                	c.addi	x13,1
    1bbc:	8fb5                	c.xor	x15,x13
    1bbe:	07c2                	c.slli	x15,0x10
    1bc0:	83c1                	c.srli	x15,0x10
    1bc2:	0017f693          	andi	x13,x15,1
    1bc6:	8385                	c.srli	x15,0x1
    1bc8:	00e68763          	beq	x13,x14,1bd6 <crcu16+0xb6>
    1bcc:	7769                	c.lui	x14,0xffffa
    1bce:	0705                	c.addi	x14,1
    1bd0:	8fb9                	c.xor	x15,x14
    1bd2:	07c2                	c.slli	x15,0x10
    1bd4:	83c1                	c.srli	x15,0x10
    1bd6:	8121                	c.srli	x10,0x8
    1bd8:	00a7c633          	xor	x12,x15,x10
    1bdc:	0ff57713          	andi	x14,x10,255
    1be0:	8a05                	c.andi	x12,1
    1be2:	00175693          	srli	x13,x14,0x1
    1be6:	0017d513          	srli	x10,x15,0x1
    1bea:	c611                	c.beqz	x12,1bf6 <crcu16+0xd6>
    1bec:	77e9                	c.lui	x15,0xffffa
    1bee:	0785                	c.addi	x15,1
    1bf0:	8d3d                	c.xor	x10,x15
    1bf2:	0542                	c.slli	x10,0x10
    1bf4:	8141                	c.srli	x10,0x10
    1bf6:	8ea9                	c.xor	x13,x10
    1bf8:	8a85                	c.andi	x13,1
    1bfa:	00275793          	srli	x15,x14,0x2
    1bfe:	8105                	c.srli	x10,0x1
    1c00:	c691                	c.beqz	x13,1c0c <crcu16+0xec>
    1c02:	76e9                	c.lui	x13,0xffffa
    1c04:	0685                	c.addi	x13,1
    1c06:	8d35                	c.xor	x10,x13
    1c08:	0542                	c.slli	x10,0x10
    1c0a:	8141                	c.srli	x10,0x10
    1c0c:	8fa9                	c.xor	x15,x10
    1c0e:	8b85                	c.andi	x15,1
    1c10:	00375693          	srli	x13,x14,0x3
    1c14:	8105                	c.srli	x10,0x1
    1c16:	c791                	c.beqz	x15,1c22 <crcu16+0x102>
    1c18:	77e9                	c.lui	x15,0xffffa
    1c1a:	0785                	c.addi	x15,1
    1c1c:	8d3d                	c.xor	x10,x15
    1c1e:	0542                	c.slli	x10,0x10
    1c20:	8141                	c.srli	x10,0x10
    1c22:	8ea9                	c.xor	x13,x10
    1c24:	8a85                	c.andi	x13,1
    1c26:	00475793          	srli	x15,x14,0x4
    1c2a:	8105                	c.srli	x10,0x1
    1c2c:	c691                	c.beqz	x13,1c38 <crcu16+0x118>
    1c2e:	76e9                	c.lui	x13,0xffffa
    1c30:	0685                	c.addi	x13,1
    1c32:	8d35                	c.xor	x10,x13
    1c34:	0542                	c.slli	x10,0x10
    1c36:	8141                	c.srli	x10,0x10
    1c38:	8fa9                	c.xor	x15,x10
    1c3a:	8b85                	c.andi	x15,1
    1c3c:	00575693          	srli	x13,x14,0x5
    1c40:	8105                	c.srli	x10,0x1
    1c42:	c791                	c.beqz	x15,1c4e <crcu16+0x12e>
    1c44:	77e9                	c.lui	x15,0xffffa
    1c46:	0785                	c.addi	x15,1
    1c48:	8d3d                	c.xor	x10,x15
    1c4a:	0542                	c.slli	x10,0x10
    1c4c:	8141                	c.srli	x10,0x10
    1c4e:	8ea9                	c.xor	x13,x10
    1c50:	8a85                	c.andi	x13,1
    1c52:	00675793          	srli	x15,x14,0x6
    1c56:	8105                	c.srli	x10,0x1
    1c58:	c691                	c.beqz	x13,1c64 <crcu16+0x144>
    1c5a:	76e9                	c.lui	x13,0xffffa
    1c5c:	0685                	c.addi	x13,1
    1c5e:	8d35                	c.xor	x10,x13
    1c60:	0542                	c.slli	x10,0x10
    1c62:	8141                	c.srli	x10,0x10
    1c64:	8fa9                	c.xor	x15,x10
    1c66:	8b85                	c.andi	x15,1
    1c68:	831d                	c.srli	x14,0x7
    1c6a:	8105                	c.srli	x10,0x1
    1c6c:	c791                	c.beqz	x15,1c78 <crcu16+0x158>
    1c6e:	77e9                	c.lui	x15,0xffffa
    1c70:	0785                	c.addi	x15,1
    1c72:	8d3d                	c.xor	x10,x15
    1c74:	0542                	c.slli	x10,0x10
    1c76:	8141                	c.srli	x10,0x10
    1c78:	00157793          	andi	x15,x10,1
    1c7c:	8105                	c.srli	x10,0x1
    1c7e:	00e78763          	beq	x15,x14,1c8c <crcu16+0x16c>
    1c82:	77e9                	c.lui	x15,0xffffa
    1c84:	0785                	c.addi	x15,1
    1c86:	8d3d                	c.xor	x10,x15
    1c88:	0542                	c.slli	x10,0x10
    1c8a:	8141                	c.srli	x10,0x10
    1c8c:	8082                	c.jr	x1

00001c8e <crcu32>:
    1c8e:	00a5c333          	xor	x6,x11,x10
    1c92:	0ff57693          	andi	x13,x10,255
    1c96:	01051713          	slli	x14,x10,0x10
    1c9a:	00137313          	andi	x6,x6,1
    1c9e:	8341                	c.srli	x14,0x10
    1ca0:	0016d613          	srli	x12,x13,0x1
    1ca4:	0015d793          	srli	x15,x11,0x1
    1ca8:	00030763          	beq	x6,x0,1cb6 <crcu32+0x28>
    1cac:	75e9                	c.lui	x11,0xffffa
    1cae:	0585                	c.addi	x11,1
    1cb0:	8fad                	c.xor	x15,x11
    1cb2:	07c2                	c.slli	x15,0x10
    1cb4:	83c1                	c.srli	x15,0x10
    1cb6:	8e3d                	c.xor	x12,x15
    1cb8:	00167593          	andi	x11,x12,1
    1cbc:	8385                	c.srli	x15,0x1
    1cbe:	0026d613          	srli	x12,x13,0x2
    1cc2:	c591                	c.beqz	x11,1cce <crcu32+0x40>
    1cc4:	75e9                	c.lui	x11,0xffffa
    1cc6:	0585                	c.addi	x11,1
    1cc8:	8fad                	c.xor	x15,x11
    1cca:	07c2                	c.slli	x15,0x10
    1ccc:	83c1                	c.srli	x15,0x10
    1cce:	8e3d                	c.xor	x12,x15
    1cd0:	8a05                	c.andi	x12,1
    1cd2:	0036d593          	srli	x11,x13,0x3
    1cd6:	8385                	c.srli	x15,0x1
    1cd8:	c611                	c.beqz	x12,1ce4 <crcu32+0x56>
    1cda:	7669                	c.lui	x12,0xffffa
    1cdc:	0605                	c.addi	x12,1
    1cde:	8fb1                	c.xor	x15,x12
    1ce0:	07c2                	c.slli	x15,0x10
    1ce2:	83c1                	c.srli	x15,0x10
    1ce4:	8dbd                	c.xor	x11,x15
    1ce6:	8985                	c.andi	x11,1
    1ce8:	0046d613          	srli	x12,x13,0x4
    1cec:	8385                	c.srli	x15,0x1
    1cee:	c591                	c.beqz	x11,1cfa <crcu32+0x6c>
    1cf0:	75e9                	c.lui	x11,0xffffa
    1cf2:	0585                	c.addi	x11,1
    1cf4:	8fad                	c.xor	x15,x11
    1cf6:	07c2                	c.slli	x15,0x10
    1cf8:	83c1                	c.srli	x15,0x10
    1cfa:	8e3d                	c.xor	x12,x15
    1cfc:	8a05                	c.andi	x12,1
    1cfe:	0056d593          	srli	x11,x13,0x5
    1d02:	8385                	c.srli	x15,0x1
    1d04:	c611                	c.beqz	x12,1d10 <crcu32+0x82>
    1d06:	7669                	c.lui	x12,0xffffa
    1d08:	0605                	c.addi	x12,1
    1d0a:	8fb1                	c.xor	x15,x12
    1d0c:	07c2                	c.slli	x15,0x10
    1d0e:	83c1                	c.srli	x15,0x10
    1d10:	8dbd                	c.xor	x11,x15
    1d12:	8985                	c.andi	x11,1
    1d14:	0066d613          	srli	x12,x13,0x6
    1d18:	8385                	c.srli	x15,0x1
    1d1a:	c591                	c.beqz	x11,1d26 <crcu32+0x98>
    1d1c:	75e9                	c.lui	x11,0xffffa
    1d1e:	0585                	c.addi	x11,1
    1d20:	8fad                	c.xor	x15,x11
    1d22:	07c2                	c.slli	x15,0x10
    1d24:	83c1                	c.srli	x15,0x10
    1d26:	8e3d                	c.xor	x12,x15
    1d28:	8a05                	c.andi	x12,1
    1d2a:	829d                	c.srli	x13,0x7
    1d2c:	8385                	c.srli	x15,0x1
    1d2e:	c611                	c.beqz	x12,1d3a <crcu32+0xac>
    1d30:	7669                	c.lui	x12,0xffffa
    1d32:	0605                	c.addi	x12,1
    1d34:	8fb1                	c.xor	x15,x12
    1d36:	07c2                	c.slli	x15,0x10
    1d38:	83c1                	c.srli	x15,0x10
    1d3a:	0017f613          	andi	x12,x15,1
    1d3e:	8385                	c.srli	x15,0x1
    1d40:	00d60763          	beq	x12,x13,1d4e <crcu32+0xc0>
    1d44:	76e9                	c.lui	x13,0xffffa
    1d46:	0685                	c.addi	x13,1
    1d48:	8fb5                	c.xor	x15,x13
    1d4a:	07c2                	c.slli	x15,0x10
    1d4c:	83c1                	c.srli	x15,0x10
    1d4e:	8321                	c.srli	x14,0x8
    1d50:	00e7c6b3          	xor	x13,x15,x14
    1d54:	8a85                	c.andi	x13,1
    1d56:	0ff77713          	andi	x14,x14,255
    1d5a:	00175613          	srli	x12,x14,0x1
    1d5e:	8385                	c.srli	x15,0x1
    1d60:	c691                	c.beqz	x13,1d6c <crcu32+0xde>
    1d62:	76e9                	c.lui	x13,0xffffa
    1d64:	0685                	c.addi	x13,1
    1d66:	8fb5                	c.xor	x15,x13
    1d68:	07c2                	c.slli	x15,0x10
    1d6a:	83c1                	c.srli	x15,0x10
    1d6c:	8e3d                	c.xor	x12,x15
    1d6e:	8a05                	c.andi	x12,1
    1d70:	00275693          	srli	x13,x14,0x2
    1d74:	8385                	c.srli	x15,0x1
    1d76:	c611                	c.beqz	x12,1d82 <crcu32+0xf4>
    1d78:	7669                	c.lui	x12,0xffffa
    1d7a:	0605                	c.addi	x12,1
    1d7c:	8fb1                	c.xor	x15,x12
    1d7e:	07c2                	c.slli	x15,0x10
    1d80:	83c1                	c.srli	x15,0x10
    1d82:	8ebd                	c.xor	x13,x15
    1d84:	8a85                	c.andi	x13,1
    1d86:	00375613          	srli	x12,x14,0x3
    1d8a:	8385                	c.srli	x15,0x1
    1d8c:	c691                	c.beqz	x13,1d98 <crcu32+0x10a>
    1d8e:	76e9                	c.lui	x13,0xffffa
    1d90:	0685                	c.addi	x13,1
    1d92:	8fb5                	c.xor	x15,x13
    1d94:	07c2                	c.slli	x15,0x10
    1d96:	83c1                	c.srli	x15,0x10
    1d98:	8e3d                	c.xor	x12,x15
    1d9a:	8a05                	c.andi	x12,1
    1d9c:	00475693          	srli	x13,x14,0x4
    1da0:	8385                	c.srli	x15,0x1
    1da2:	c611                	c.beqz	x12,1dae <crcu32+0x120>
    1da4:	7669                	c.lui	x12,0xffffa
    1da6:	0605                	c.addi	x12,1
    1da8:	8fb1                	c.xor	x15,x12
    1daa:	07c2                	c.slli	x15,0x10
    1dac:	83c1                	c.srli	x15,0x10
    1dae:	8ebd                	c.xor	x13,x15
    1db0:	8a85                	c.andi	x13,1
    1db2:	00575613          	srli	x12,x14,0x5
    1db6:	8385                	c.srli	x15,0x1
    1db8:	c691                	c.beqz	x13,1dc4 <crcu32+0x136>
    1dba:	76e9                	c.lui	x13,0xffffa
    1dbc:	0685                	c.addi	x13,1
    1dbe:	8fb5                	c.xor	x15,x13
    1dc0:	07c2                	c.slli	x15,0x10
    1dc2:	83c1                	c.srli	x15,0x10
    1dc4:	8e3d                	c.xor	x12,x15
    1dc6:	8a05                	c.andi	x12,1
    1dc8:	00675693          	srli	x13,x14,0x6
    1dcc:	8385                	c.srli	x15,0x1
    1dce:	c611                	c.beqz	x12,1dda <crcu32+0x14c>
    1dd0:	7669                	c.lui	x12,0xffffa
    1dd2:	0605                	c.addi	x12,1
    1dd4:	8fb1                	c.xor	x15,x12
    1dd6:	07c2                	c.slli	x15,0x10
    1dd8:	83c1                	c.srli	x15,0x10
    1dda:	8ebd                	c.xor	x13,x15
    1ddc:	8a85                	c.andi	x13,1
    1dde:	831d                	c.srli	x14,0x7
    1de0:	8385                	c.srli	x15,0x1
    1de2:	c691                	c.beqz	x13,1dee <crcu32+0x160>
    1de4:	76e9                	c.lui	x13,0xffffa
    1de6:	0685                	c.addi	x13,1
    1de8:	8fb5                	c.xor	x15,x13
    1dea:	07c2                	c.slli	x15,0x10
    1dec:	83c1                	c.srli	x15,0x10
    1dee:	0017f693          	andi	x13,x15,1
    1df2:	8385                	c.srli	x15,0x1
    1df4:	00e68763          	beq	x13,x14,1e02 <crcu32+0x174>
    1df8:	7769                	c.lui	x14,0xffffa
    1dfa:	0705                	c.addi	x14,1
    1dfc:	8fb9                	c.xor	x15,x14
    1dfe:	07c2                	c.slli	x15,0x10
    1e00:	83c1                	c.srli	x15,0x10
    1e02:	8141                	c.srli	x10,0x10
    1e04:	00a7c5b3          	xor	x11,x15,x10
    1e08:	0ff57693          	andi	x13,x10,255
    1e0c:	01051713          	slli	x14,x10,0x10
    1e10:	8985                	c.andi	x11,1
    1e12:	8341                	c.srli	x14,0x10
    1e14:	0016d613          	srli	x12,x13,0x1
    1e18:	0017d513          	srli	x10,x15,0x1
    1e1c:	c591                	c.beqz	x11,1e28 <crcu32+0x19a>
    1e1e:	77e9                	c.lui	x15,0xffffa
    1e20:	0785                	c.addi	x15,1
    1e22:	8d3d                	c.xor	x10,x15
    1e24:	0542                	c.slli	x10,0x10
    1e26:	8141                	c.srli	x10,0x10
    1e28:	8e29                	c.xor	x12,x10
    1e2a:	8a05                	c.andi	x12,1
    1e2c:	0026d793          	srli	x15,x13,0x2
    1e30:	8105                	c.srli	x10,0x1
    1e32:	c611                	c.beqz	x12,1e3e <crcu32+0x1b0>
    1e34:	7669                	c.lui	x12,0xffffa
    1e36:	0605                	c.addi	x12,1
    1e38:	8d31                	c.xor	x10,x12
    1e3a:	0542                	c.slli	x10,0x10
    1e3c:	8141                	c.srli	x10,0x10
    1e3e:	8fa9                	c.xor	x15,x10
    1e40:	8b85                	c.andi	x15,1
    1e42:	0036d613          	srli	x12,x13,0x3
    1e46:	8105                	c.srli	x10,0x1
    1e48:	c791                	c.beqz	x15,1e54 <crcu32+0x1c6>
    1e4a:	77e9                	c.lui	x15,0xffffa
    1e4c:	0785                	c.addi	x15,1
    1e4e:	8d3d                	c.xor	x10,x15
    1e50:	0542                	c.slli	x10,0x10
    1e52:	8141                	c.srli	x10,0x10
    1e54:	8e29                	c.xor	x12,x10
    1e56:	8a05                	c.andi	x12,1
    1e58:	0046d793          	srli	x15,x13,0x4
    1e5c:	8105                	c.srli	x10,0x1
    1e5e:	c611                	c.beqz	x12,1e6a <crcu32+0x1dc>
    1e60:	7669                	c.lui	x12,0xffffa
    1e62:	0605                	c.addi	x12,1
    1e64:	8d31                	c.xor	x10,x12
    1e66:	0542                	c.slli	x10,0x10
    1e68:	8141                	c.srli	x10,0x10
    1e6a:	8fa9                	c.xor	x15,x10
    1e6c:	8b85                	c.andi	x15,1
    1e6e:	0056d613          	srli	x12,x13,0x5
    1e72:	8105                	c.srli	x10,0x1
    1e74:	c791                	c.beqz	x15,1e80 <crcu32+0x1f2>
    1e76:	77e9                	c.lui	x15,0xffffa
    1e78:	0785                	c.addi	x15,1
    1e7a:	8d3d                	c.xor	x10,x15
    1e7c:	0542                	c.slli	x10,0x10
    1e7e:	8141                	c.srli	x10,0x10
    1e80:	8e29                	c.xor	x12,x10
    1e82:	8a05                	c.andi	x12,1
    1e84:	0066d793          	srli	x15,x13,0x6
    1e88:	8105                	c.srli	x10,0x1
    1e8a:	c611                	c.beqz	x12,1e96 <crcu32+0x208>
    1e8c:	7669                	c.lui	x12,0xffffa
    1e8e:	0605                	c.addi	x12,1
    1e90:	8d31                	c.xor	x10,x12
    1e92:	0542                	c.slli	x10,0x10
    1e94:	8141                	c.srli	x10,0x10
    1e96:	8fa9                	c.xor	x15,x10
    1e98:	8b85                	c.andi	x15,1
    1e9a:	829d                	c.srli	x13,0x7
    1e9c:	8105                	c.srli	x10,0x1
    1e9e:	c791                	c.beqz	x15,1eaa <crcu32+0x21c>
    1ea0:	77e9                	c.lui	x15,0xffffa
    1ea2:	0785                	c.addi	x15,1
    1ea4:	8d3d                	c.xor	x10,x15
    1ea6:	0542                	c.slli	x10,0x10
    1ea8:	8141                	c.srli	x10,0x10
    1eaa:	00157793          	andi	x15,x10,1
    1eae:	8105                	c.srli	x10,0x1
    1eb0:	00d78763          	beq	x15,x13,1ebe <crcu32+0x230>
    1eb4:	77e9                	c.lui	x15,0xffffa
    1eb6:	0785                	c.addi	x15,1
    1eb8:	8d3d                	c.xor	x10,x15
    1eba:	0542                	c.slli	x10,0x10
    1ebc:	8141                	c.srli	x10,0x10
    1ebe:	00875793          	srli	x15,x14,0x8
    1ec2:	00f54733          	xor	x14,x10,x15
    1ec6:	8b05                	c.andi	x14,1
    1ec8:	0ff7f793          	andi	x15,x15,255
    1ecc:	0017d693          	srli	x13,x15,0x1
    1ed0:	8105                	c.srli	x10,0x1
    1ed2:	c711                	c.beqz	x14,1ede <crcu32+0x250>
    1ed4:	7769                	c.lui	x14,0xffffa
    1ed6:	0705                	c.addi	x14,1
    1ed8:	8d39                	c.xor	x10,x14
    1eda:	0542                	c.slli	x10,0x10
    1edc:	8141                	c.srli	x10,0x10
    1ede:	8ea9                	c.xor	x13,x10
    1ee0:	8a85                	c.andi	x13,1
    1ee2:	0027d713          	srli	x14,x15,0x2
    1ee6:	8105                	c.srli	x10,0x1
    1ee8:	c691                	c.beqz	x13,1ef4 <crcu32+0x266>
    1eea:	76e9                	c.lui	x13,0xffffa
    1eec:	0685                	c.addi	x13,1
    1eee:	8d35                	c.xor	x10,x13
    1ef0:	0542                	c.slli	x10,0x10
    1ef2:	8141                	c.srli	x10,0x10
    1ef4:	8f29                	c.xor	x14,x10
    1ef6:	8b05                	c.andi	x14,1
    1ef8:	0037d693          	srli	x13,x15,0x3
    1efc:	8105                	c.srli	x10,0x1
    1efe:	c711                	c.beqz	x14,1f0a <crcu32+0x27c>
    1f00:	7769                	c.lui	x14,0xffffa
    1f02:	0705                	c.addi	x14,1
    1f04:	8d39                	c.xor	x10,x14
    1f06:	0542                	c.slli	x10,0x10
    1f08:	8141                	c.srli	x10,0x10
    1f0a:	8ea9                	c.xor	x13,x10
    1f0c:	8a85                	c.andi	x13,1
    1f0e:	0047d713          	srli	x14,x15,0x4
    1f12:	8105                	c.srli	x10,0x1
    1f14:	c691                	c.beqz	x13,1f20 <crcu32+0x292>
    1f16:	76e9                	c.lui	x13,0xffffa
    1f18:	0685                	c.addi	x13,1
    1f1a:	8d35                	c.xor	x10,x13
    1f1c:	0542                	c.slli	x10,0x10
    1f1e:	8141                	c.srli	x10,0x10
    1f20:	8f29                	c.xor	x14,x10
    1f22:	8b05                	c.andi	x14,1
    1f24:	0057d693          	srli	x13,x15,0x5
    1f28:	8105                	c.srli	x10,0x1
    1f2a:	c711                	c.beqz	x14,1f36 <crcu32+0x2a8>
    1f2c:	7769                	c.lui	x14,0xffffa
    1f2e:	0705                	c.addi	x14,1
    1f30:	8d39                	c.xor	x10,x14
    1f32:	0542                	c.slli	x10,0x10
    1f34:	8141                	c.srli	x10,0x10
    1f36:	8ea9                	c.xor	x13,x10
    1f38:	8a85                	c.andi	x13,1
    1f3a:	0067d713          	srli	x14,x15,0x6
    1f3e:	8105                	c.srli	x10,0x1
    1f40:	c691                	c.beqz	x13,1f4c <crcu32+0x2be>
    1f42:	76e9                	c.lui	x13,0xffffa
    1f44:	0685                	c.addi	x13,1
    1f46:	8d35                	c.xor	x10,x13
    1f48:	0542                	c.slli	x10,0x10
    1f4a:	8141                	c.srli	x10,0x10
    1f4c:	8f29                	c.xor	x14,x10
    1f4e:	8b05                	c.andi	x14,1
    1f50:	839d                	c.srli	x15,0x7
    1f52:	8105                	c.srli	x10,0x1
    1f54:	c711                	c.beqz	x14,1f60 <crcu32+0x2d2>
    1f56:	7769                	c.lui	x14,0xffffa
    1f58:	0705                	c.addi	x14,1
    1f5a:	8d39                	c.xor	x10,x14
    1f5c:	0542                	c.slli	x10,0x10
    1f5e:	8141                	c.srli	x10,0x10
    1f60:	00157713          	andi	x14,x10,1
    1f64:	8105                	c.srli	x10,0x1
    1f66:	00f70763          	beq	x14,x15,1f74 <crcu32+0x2e6>
    1f6a:	77e9                	c.lui	x15,0xffffa
    1f6c:	0785                	c.addi	x15,1
    1f6e:	8d3d                	c.xor	x10,x15
    1f70:	0542                	c.slli	x10,0x10
    1f72:	8141                	c.srli	x10,0x10
    1f74:	8082                	c.jr	x1

00001f76 <crc16>:
    1f76:	00a5c633          	xor	x12,x11,x10
    1f7a:	0ff57713          	andi	x14,x10,255
    1f7e:	01051793          	slli	x15,x10,0x10
    1f82:	8a05                	c.andi	x12,1
    1f84:	83c1                	c.srli	x15,0x10
    1f86:	00175693          	srli	x13,x14,0x1
    1f8a:	0015d513          	srli	x10,x11,0x1
    1f8e:	c611                	c.beqz	x12,1f9a <crc16+0x24>
    1f90:	75e9                	c.lui	x11,0xffffa
    1f92:	0585                	c.addi	x11,1
    1f94:	8d2d                	c.xor	x10,x11
    1f96:	0542                	c.slli	x10,0x10
    1f98:	8141                	c.srli	x10,0x10
    1f9a:	8ea9                	c.xor	x13,x10
    1f9c:	0016f613          	andi	x12,x13,1
    1fa0:	8105                	c.srli	x10,0x1
    1fa2:	00275693          	srli	x13,x14,0x2
    1fa6:	c611                	c.beqz	x12,1fb2 <crc16+0x3c>
    1fa8:	75e9                	c.lui	x11,0xffffa
    1faa:	0585                	c.addi	x11,1
    1fac:	8d2d                	c.xor	x10,x11
    1fae:	0542                	c.slli	x10,0x10
    1fb0:	8141                	c.srli	x10,0x10
    1fb2:	8ea9                	c.xor	x13,x10
    1fb4:	8a85                	c.andi	x13,1
    1fb6:	00375613          	srli	x12,x14,0x3
    1fba:	8105                	c.srli	x10,0x1
    1fbc:	c691                	c.beqz	x13,1fc8 <crc16+0x52>
    1fbe:	76e9                	c.lui	x13,0xffffa
    1fc0:	0685                	c.addi	x13,1
    1fc2:	8d35                	c.xor	x10,x13
    1fc4:	0542                	c.slli	x10,0x10
    1fc6:	8141                	c.srli	x10,0x10
    1fc8:	8e29                	c.xor	x12,x10
    1fca:	8a05                	c.andi	x12,1
    1fcc:	00475693          	srli	x13,x14,0x4
    1fd0:	8105                	c.srli	x10,0x1
    1fd2:	c611                	c.beqz	x12,1fde <crc16+0x68>
    1fd4:	7669                	c.lui	x12,0xffffa
    1fd6:	0605                	c.addi	x12,1
    1fd8:	8d31                	c.xor	x10,x12
    1fda:	0542                	c.slli	x10,0x10
    1fdc:	8141                	c.srli	x10,0x10
    1fde:	8ea9                	c.xor	x13,x10
    1fe0:	8a85                	c.andi	x13,1
    1fe2:	00575613          	srli	x12,x14,0x5
    1fe6:	8105                	c.srli	x10,0x1
    1fe8:	c691                	c.beqz	x13,1ff4 <crc16+0x7e>
    1fea:	76e9                	c.lui	x13,0xffffa
    1fec:	0685                	c.addi	x13,1
    1fee:	8d35                	c.xor	x10,x13
    1ff0:	0542                	c.slli	x10,0x10
    1ff2:	8141                	c.srli	x10,0x10
    1ff4:	8e29                	c.xor	x12,x10
    1ff6:	8a05                	c.andi	x12,1
    1ff8:	00675693          	srli	x13,x14,0x6
    1ffc:	8105                	c.srli	x10,0x1
    1ffe:	c611                	c.beqz	x12,200a <crc16+0x94>
    2000:	7669                	c.lui	x12,0xffffa
    2002:	0605                	c.addi	x12,1
    2004:	8d31                	c.xor	x10,x12
    2006:	0542                	c.slli	x10,0x10
    2008:	8141                	c.srli	x10,0x10
    200a:	8ea9                	c.xor	x13,x10
    200c:	8a85                	c.andi	x13,1
    200e:	831d                	c.srli	x14,0x7
    2010:	8105                	c.srli	x10,0x1
    2012:	c691                	c.beqz	x13,201e <crc16+0xa8>
    2014:	76e9                	c.lui	x13,0xffffa
    2016:	0685                	c.addi	x13,1
    2018:	8d35                	c.xor	x10,x13
    201a:	0542                	c.slli	x10,0x10
    201c:	8141                	c.srli	x10,0x10
    201e:	00157693          	andi	x13,x10,1
    2022:	8105                	c.srli	x10,0x1
    2024:	00e68763          	beq	x13,x14,2032 <crc16+0xbc>
    2028:	7769                	c.lui	x14,0xffffa
    202a:	0705                	c.addi	x14,1
    202c:	8d39                	c.xor	x10,x14
    202e:	0542                	c.slli	x10,0x10
    2030:	8141                	c.srli	x10,0x10
    2032:	83a1                	c.srli	x15,0x8
    2034:	00f54733          	xor	x14,x10,x15
    2038:	8b05                	c.andi	x14,1
    203a:	0ff7f793          	andi	x15,x15,255
    203e:	0017d693          	srli	x13,x15,0x1
    2042:	8105                	c.srli	x10,0x1
    2044:	c711                	c.beqz	x14,2050 <crc16+0xda>
    2046:	7769                	c.lui	x14,0xffffa
    2048:	0705                	c.addi	x14,1
    204a:	8d39                	c.xor	x10,x14
    204c:	0542                	c.slli	x10,0x10
    204e:	8141                	c.srli	x10,0x10
    2050:	8ea9                	c.xor	x13,x10
    2052:	8a85                	c.andi	x13,1
    2054:	0027d713          	srli	x14,x15,0x2
    2058:	8105                	c.srli	x10,0x1
    205a:	c691                	c.beqz	x13,2066 <crc16+0xf0>
    205c:	76e9                	c.lui	x13,0xffffa
    205e:	0685                	c.addi	x13,1
    2060:	8d35                	c.xor	x10,x13
    2062:	0542                	c.slli	x10,0x10
    2064:	8141                	c.srli	x10,0x10
    2066:	8f29                	c.xor	x14,x10
    2068:	8b05                	c.andi	x14,1
    206a:	0037d693          	srli	x13,x15,0x3
    206e:	8105                	c.srli	x10,0x1
    2070:	c711                	c.beqz	x14,207c <crc16+0x106>
    2072:	7769                	c.lui	x14,0xffffa
    2074:	0705                	c.addi	x14,1
    2076:	8d39                	c.xor	x10,x14
    2078:	0542                	c.slli	x10,0x10
    207a:	8141                	c.srli	x10,0x10
    207c:	8ea9                	c.xor	x13,x10
    207e:	8a85                	c.andi	x13,1
    2080:	0047d713          	srli	x14,x15,0x4
    2084:	8105                	c.srli	x10,0x1
    2086:	c691                	c.beqz	x13,2092 <crc16+0x11c>
    2088:	76e9                	c.lui	x13,0xffffa
    208a:	0685                	c.addi	x13,1
    208c:	8d35                	c.xor	x10,x13
    208e:	0542                	c.slli	x10,0x10
    2090:	8141                	c.srli	x10,0x10
    2092:	8f29                	c.xor	x14,x10
    2094:	8b05                	c.andi	x14,1
    2096:	0057d693          	srli	x13,x15,0x5
    209a:	8105                	c.srli	x10,0x1
    209c:	c711                	c.beqz	x14,20a8 <crc16+0x132>
    209e:	7769                	c.lui	x14,0xffffa
    20a0:	0705                	c.addi	x14,1
    20a2:	8d39                	c.xor	x10,x14
    20a4:	0542                	c.slli	x10,0x10
    20a6:	8141                	c.srli	x10,0x10
    20a8:	8ea9                	c.xor	x13,x10
    20aa:	8a85                	c.andi	x13,1
    20ac:	0067d713          	srli	x14,x15,0x6
    20b0:	8105                	c.srli	x10,0x1
    20b2:	c691                	c.beqz	x13,20be <crc16+0x148>
    20b4:	76e9                	c.lui	x13,0xffffa
    20b6:	0685                	c.addi	x13,1
    20b8:	8d35                	c.xor	x10,x13
    20ba:	0542                	c.slli	x10,0x10
    20bc:	8141                	c.srli	x10,0x10
    20be:	8f29                	c.xor	x14,x10
    20c0:	8b05                	c.andi	x14,1
    20c2:	839d                	c.srli	x15,0x7
    20c4:	8105                	c.srli	x10,0x1
    20c6:	c711                	c.beqz	x14,20d2 <crc16+0x15c>
    20c8:	7769                	c.lui	x14,0xffffa
    20ca:	0705                	c.addi	x14,1
    20cc:	8d39                	c.xor	x10,x14
    20ce:	0542                	c.slli	x10,0x10
    20d0:	8141                	c.srli	x10,0x10
    20d2:	00157713          	andi	x14,x10,1
    20d6:	8105                	c.srli	x10,0x1
    20d8:	00f70763          	beq	x14,x15,20e6 <crc16+0x170>
    20dc:	77e9                	c.lui	x15,0xffffa
    20de:	0785                	c.addi	x15,1
    20e0:	8d3d                	c.xor	x10,x15
    20e2:	0542                	c.slli	x10,0x10
    20e4:	8141                	c.srli	x10,0x10
    20e6:	8082                	c.jr	x1

000020e8 <check_data_types>:
    20e8:	4501                	c.li	x10,0
    20ea:	8082                	c.jr	x1

000020ec <cvt>:
    20ec:	fa410113          	addi	x2,x2,-92
    20f0:	c23e                	c.swsp	x15,4(x2)
    20f2:	04310793          	addi	x15,x2,67
    20f6:	9be1                	c.andi	x15,-8
    20f8:	caa2                	c.swsp	x8,84(x2)
    20fa:	c8a6                	c.swsp	x9,80(x2)
    20fc:	cc86                	c.swsp	x1,88(x2)
    20fe:	04e00313          	addi	x6,x0,78
    2102:	da36                	c.swsp	x13,52(x2)
    2104:	c03e                	c.swsp	x15,0(x2)
    2106:	84aa                	c.mv	x9,x10
    2108:	842e                	c.mv	x8,x11
    210a:	24c35c63          	bge	x6,x12,2362 <cvt+0x276>
    210e:	04e00793          	addi	x15,x0,78
    2112:	d83e                	c.swsp	x15,48(x2)
    2114:	8526                	c.mv	x10,x9
    2116:	85a2                	c.mv	x11,x8
    2118:	4601                	c.li	x12,0
    211a:	4681                	c.li	x13,0
    211c:	c43a                	c.swsp	x14,8(x2)
    211e:	31c020ef          	jal	x1,443a <__ledf2>
    2122:	4722                	c.lwsp	x14,8(x2)
    2124:	2e054d63          	blt	x10,x0,241e <cvt+0x332>
    2128:	00072023          	sw	x0,0(x14) # ffffa000 <_stack_start+0xffefa004>
    212c:	85a2                	c.mv	x11,x8
    212e:	4402                	c.lwsp	x8,0(x2)
    2130:	8526                	c.mv	x10,x9
    2132:	00840793          	addi	x15,x8,8
    2136:	863e                	c.mv	x12,x15
    2138:	d43e                	c.swsp	x15,40(x2)
    213a:	49f020ef          	jal	x1,4dd8 <modf>
    213e:	4418                	c.lw	x14,8(x8)
    2140:	445c                	c.lw	x15,12(x8)
    2142:	dc2e                	c.swsp	x11,56(x2)
    2144:	4592                	c.lwsp	x11,4(x2)
    2146:	c42a                	c.swsp	x10,8(x2)
    2148:	4601                	c.li	x12,0
    214a:	05058493          	addi	x9,x11,80 # ffffa050 <_stack_start+0xffefa054>
    214e:	4681                	c.li	x13,0
    2150:	853a                	c.mv	x10,x14
    2152:	85be                	c.mv	x11,x15
    2154:	ca26                	c.swsp	x9,20(x2)
    2156:	c63a                	c.swsp	x14,12(x2)
    2158:	c83e                	c.swsp	x15,16(x2)
    215a:	1b2020ef          	jal	x1,430c <__eqdf2>
    215e:	20050863          	beq	x10,x0,236e <cvt+0x282>
    2162:	000067b7          	lui	x15,0x6
    2166:	d03e                	c.swsp	x15,32(x2)
    2168:	4732                	c.lwsp	x14,12(x2)
    216a:	47c2                	c.lwsp	x15,16(x2)
    216c:	a011                	c.j	2170 <cvt+0x84>
    216e:	84a2                	c.mv	x9,x8
    2170:	000066b7          	lui	x13,0x6
    2174:	6786a603          	lw	x12,1656(x13) # 6678 <__clz_tab+0x668>
    2178:	67c6a683          	lw	x13,1660(x13)
    217c:	853a                	c.mv	x10,x14
    217e:	85be                	c.mv	x11,x15
    2180:	355010ef          	jal	x1,3cd4 <__divdf3>
    2184:	5622                	c.lwsp	x12,40(x2)
    2186:	fff48413          	addi	x8,x9,-1
    218a:	44f020ef          	jal	x1,4dd8 <modf>
    218e:	000067b7          	lui	x15,0x6
    2192:	6887a603          	lw	x12,1672(x15) # 6688 <__clz_tab+0x678>
    2196:	68c7a683          	lw	x13,1676(x15)
    219a:	4782                	c.lwsp	x15,0(x2)
    219c:	c388                	c.sw	x10,0(x15)
    219e:	c3cc                	c.sw	x11,4(x15)
    21a0:	53a010ef          	jal	x1,36da <__adddf3>
    21a4:	5702                	c.lwsp	x14,32(x2)
    21a6:	d622                	c.swsp	x8,44(x2)
    21a8:	67872603          	lw	x12,1656(x14)
    21ac:	67c72683          	lw	x13,1660(x14)
    21b0:	33e020ef          	jal	x1,44ee <__muldf3>
    21b4:	00f020ef          	jal	x1,49c2 <__fixdfsi>
    21b8:	4782                	c.lwsp	x15,0(x2)
    21ba:	4692                	c.lwsp	x13,4(x2)
    21bc:	03050513          	addi	x10,x10,48
    21c0:	4798                	c.lw	x14,8(x15)
    21c2:	47dc                	c.lw	x15,12(x15)
    21c4:	40868333          	sub	x6,x13,x8
    21c8:	fea48fa3          	sb	x10,-1(x9)
    21cc:	85be                	c.mv	x11,x15
    21ce:	853a                	c.mv	x10,x14
    21d0:	ce3e                	c.swsp	x15,28(x2)
    21d2:	4601                	c.li	x12,0
    21d4:	05030793          	addi	x15,x6,80
    21d8:	4681                	c.li	x13,0
    21da:	cc3a                	c.swsp	x14,24(x2)
    21dc:	c63e                	c.swsp	x15,12(x2)
    21de:	12e020ef          	jal	x1,430c <__eqdf2>
    21e2:	4762                	c.lwsp	x14,24(x2)
    21e4:	47f2                	c.lwsp	x15,28(x2)
    21e6:	f541                	c.bnez	x10,216e <cvt+0x82>
    21e8:	4652                	c.lwsp	x12,20(x2)
    21ea:	2ec47a63          	bgeu	x8,x12,24de <cvt+0x3f2>
    21ee:	4692                	c.lwsp	x13,4(x2)
    21f0:	048d                	c.addi	x9,3
    21f2:	00468713          	addi	x14,x13,4
    21f6:	00e43733          	sltu	x14,x8,x14
    21fa:	0096b4b3          	sltu	x9,x13,x9
    21fe:	0086e7b3          	or	x15,x13,x8
    2202:	0014c493          	xori	x9,x9,1
    2206:	00174713          	xori	x14,x14,1
    220a:	8b8d                	c.andi	x15,3
    220c:	8f45                	c.or	x14,x9
    220e:	0017b493          	sltiu	x9,x15,1
    2212:	8cf9                	c.and	x9,x14
    2214:	2a048a63          	beq	x9,x0,24c8 <cvt+0x3dc>
    2218:	04f68793          	addi	x15,x13,79
    221c:	8f81                	c.sub	x15,x8
    221e:	0097b793          	sltiu	x15,x15,9
    2222:	2a079363          	bne	x15,x0,24c8 <cvt+0x3dc>
    2226:	408605b3          	sub	x11,x12,x8
    222a:	ffc5f613          	andi	x12,x11,-4
    222e:	9622                	c.add	x12,x8
    2230:	8736                	c.mv	x14,x13
    2232:	87a2                	c.mv	x15,x8
    2234:	4394                	c.lw	x13,0(x15)
    2236:	0711                	c.addi	x14,4
    2238:	0791                	c.addi	x15,4
    223a:	fed72e23          	sw	x13,-4(x14)
    223e:	fec79be3          	bne	x15,x12,2234 <cvt+0x148>
    2242:	4712                	c.lwsp	x14,4(x2)
    2244:	ffc5f793          	andi	x15,x11,-4
    2248:	943e                	c.add	x8,x15
    224a:	973e                	c.add	x14,x15
    224c:	02f58763          	beq	x11,x15,227a <cvt+0x18e>
    2250:	00044683          	lbu	x13,0(x8)
    2254:	4652                	c.lwsp	x12,20(x2)
    2256:	00140793          	addi	x15,x8,1
    225a:	00d70023          	sb	x13,0(x14)
    225e:	00c7fe63          	bgeu	x15,x12,227a <cvt+0x18e>
    2262:	00144683          	lbu	x13,1(x8)
    2266:	00240793          	addi	x15,x8,2
    226a:	00d700a3          	sb	x13,1(x14)
    226e:	00c7f663          	bgeu	x15,x12,227a <cvt+0x18e>
    2272:	00244783          	lbu	x15,2(x8)
    2276:	00f70123          	sb	x15,2(x14)
    227a:	47d2                	c.lwsp	x15,20(x2)
    227c:	5732                	c.lwsp	x14,44(x2)
    227e:	40e78333          	sub	x6,x15,x14
    2282:	4792                	c.lwsp	x15,4(x2)
    2284:	006784b3          	add	x9,x15,x6
    2288:	5742                	c.lwsp	x14,48(x2)
    228a:	00e78433          	add	x8,x15,x14
    228e:	47f6                	c.lwsp	x15,92(x2)
    2290:	e399                	c.bnez	x15,2296 <cvt+0x1aa>
    2292:	47b2                	c.lwsp	x15,12(x2)
    2294:	943e                	c.add	x8,x15
    2296:	57d2                	c.lwsp	x15,52(x2)
    2298:	4732                	c.lwsp	x14,12(x2)
    229a:	c398                	c.sw	x14,0(x15)
    229c:	4792                	c.lwsp	x15,4(x2)
    229e:	18f46663          	bltu	x8,x15,242a <cvt+0x33e>
    22a2:	04946f63          	bltu	x8,x9,2300 <cvt+0x214>
    22a6:	000067b7          	lui	x15,0x6
    22aa:	873e                	c.mv	x14,x15
    22ac:	47d2                	c.lwsp	x15,20(x2)
    22ae:	04f4f963          	bgeu	x9,x15,2300 <cvt+0x214>
    22b2:	87ba                	c.mv	x15,x14
    22b4:	67c7a783          	lw	x15,1660(x15) # 667c <__clz_tab+0x66c>
    22b8:	67872703          	lw	x14,1656(x14)
    22bc:	c622                	c.swsp	x8,12(x2)
    22be:	ce3e                	c.swsp	x15,28(x2)
    22c0:	8426                	c.mv	x8,x9
    22c2:	cc3a                	c.swsp	x14,24(x2)
    22c4:	54e2                	c.lwsp	x9,56(x2)
    22c6:	a021                	c.j	22ce <cvt+0x1e2>
    22c8:	47d2                	c.lwsp	x15,20(x2)
    22ca:	16878963          	beq	x15,x8,243c <cvt+0x350>
    22ce:	4662                	c.lwsp	x12,24(x2)
    22d0:	46f2                	c.lwsp	x13,28(x2)
    22d2:	4522                	c.lwsp	x10,8(x2)
    22d4:	85a6                	c.mv	x11,x9
    22d6:	0405                	c.addi	x8,1
    22d8:	216020ef          	jal	x1,44ee <__muldf3>
    22dc:	4602                	c.lwsp	x12,0(x2)
    22de:	2fb020ef          	jal	x1,4dd8 <modf>
    22e2:	4782                	c.lwsp	x15,0(x2)
    22e4:	c42a                	c.swsp	x10,8(x2)
    22e6:	84ae                	c.mv	x9,x11
    22e8:	4388                	c.lw	x10,0(x15)
    22ea:	43cc                	c.lw	x11,4(x15)
    22ec:	6d6020ef          	jal	x1,49c2 <__fixdfsi>
    22f0:	47b2                	c.lwsp	x15,12(x2)
    22f2:	03050513          	addi	x10,x10,48
    22f6:	fea40fa3          	sb	x10,-1(x8)
    22fa:	fc87f7e3          	bgeu	x15,x8,22c8 <cvt+0x1dc>
    22fe:	843e                	c.mv	x8,x15
    2300:	47d2                	c.lwsp	x15,20(x2)
    2302:	14f47163          	bgeu	x8,x15,2444 <cvt+0x358>
    2306:	00044683          	lbu	x13,0(x8)
    230a:	47f6                	c.lwsp	x15,92(x2)
    230c:	03900313          	addi	x6,x0,57
    2310:	0695                	c.addi	x13,5
    2312:	0ff6f693          	andi	x13,x13,255
    2316:	00d40023          	sb	x13,0(x8)
    231a:	8722                	c.mv	x14,x8
    231c:	03000613          	addi	x12,x0,48
    2320:	12079c63          	bne	x15,x0,2458 <cvt+0x36c>
    2324:	03100513          	addi	x10,x0,49
    2328:	03900593          	addi	x11,x0,57
    232c:	02d37263          	bgeu	x6,x13,2350 <cvt+0x264>
    2330:	5352                	c.lwsp	x6,52(x2)
    2332:	4692                	c.lwsp	x13,4(x2)
    2334:	00c70023          	sb	x12,0(x14)
    2338:	16e6f763          	bgeu	x13,x14,24a6 <cvt+0x3ba>
    233c:	fff74783          	lbu	x15,-1(x14)
    2340:	177d                	c.addi	x14,-1
    2342:	0785                	c.addi	x15,1
    2344:	0ff7f793          	andi	x15,x15,255
    2348:	00f70023          	sb	x15,0(x14)
    234c:	fef5e4e3          	bltu	x11,x15,2334 <cvt+0x248>
    2350:	00040023          	sb	x0,0(x8)
    2354:	40e6                	c.lwsp	x1,88(x2)
    2356:	4456                	c.lwsp	x8,84(x2)
    2358:	4512                	c.lwsp	x10,4(x2)
    235a:	44c6                	c.lwsp	x9,80(x2)
    235c:	05c10113          	addi	x2,x2,92
    2360:	8082                	c.jr	x1
    2362:	fff64793          	xori	x15,x12,-1
    2366:	87fd                	c.srai	x15,0x1f
    2368:	8ff1                	c.and	x15,x12
    236a:	d83e                	c.swsp	x15,48(x2)
    236c:	b365                	c.j	2114 <cvt+0x28>
    236e:	44a2                	c.lwsp	x9,8(x2)
    2370:	5462                	c.lwsp	x8,56(x2)
    2372:	4601                	c.li	x12,0
    2374:	8526                	c.mv	x10,x9
    2376:	85a2                	c.mv	x11,x8
    2378:	4681                	c.li	x13,0
    237a:	00c020ef          	jal	x1,4386 <__gedf2>
    237e:	08a05c63          	bge	x0,x10,2416 <cvt+0x32a>
    2382:	000067b7          	lui	x15,0x6
    2386:	6787a603          	lw	x12,1656(x15) # 6678 <__clz_tab+0x668>
    238a:	67c7a683          	lw	x13,1660(x15)
    238e:	8526                	c.mv	x10,x9
    2390:	85a2                	c.mv	x11,x8
    2392:	d03e                	c.swsp	x15,32(x2)
    2394:	15a020ef          	jal	x1,44ee <__muldf3>
    2398:	000066b7          	lui	x13,0x6
    239c:	6746a783          	lw	x15,1652(x13) # 6674 <__clz_tab+0x664>
    23a0:	4702                	c.lwsp	x14,0(x2)
    23a2:	6706a483          	lw	x9,1648(x13)
    23a6:	86be                	c.mv	x13,x15
    23a8:	c308                	c.sw	x10,0(x14)
    23aa:	8626                	c.mv	x12,x9
    23ac:	c34c                	c.sw	x11,4(x14)
    23ae:	842e                	c.mv	x8,x11
    23b0:	d63e                	c.swsp	x15,44(x2)
    23b2:	cc2a                	c.swsp	x10,24(x2)
    23b4:	086020ef          	jal	x1,443a <__ledf2>
    23b8:	c602                	c.swsp	x0,12(x2)
    23ba:	12055263          	bge	x10,x0,24de <cvt+0x3f2>
    23be:	5782                	c.lwsp	x15,32(x2)
    23c0:	d426                	c.swsp	x9,40(x2)
    23c2:	84a2                	c.mv	x9,x8
    23c4:	6787a703          	lw	x14,1656(x15)
    23c8:	67c7a783          	lw	x15,1660(x15)
    23cc:	d03a                	c.swsp	x14,32(x2)
    23ce:	4762                	c.lwsp	x14,24(x2)
    23d0:	d23e                	c.swsp	x15,36(x2)
    23d2:	843a                	c.mv	x8,x14
    23d4:	a019                	c.j	23da <cvt+0x2ee>
    23d6:	44a2                	c.lwsp	x9,8(x2)
    23d8:	8416                	c.mv	x8,x5
    23da:	5602                	c.lwsp	x12,32(x2)
    23dc:	5692                	c.lwsp	x13,36(x2)
    23de:	8522                	c.mv	x10,x8
    23e0:	85a6                	c.mv	x11,x9
    23e2:	10c020ef          	jal	x1,44ee <__muldf3>
    23e6:	47b2                	c.lwsp	x15,12(x2)
    23e8:	5622                	c.lwsp	x12,40(x2)
    23ea:	56b2                	c.lwsp	x13,44(x2)
    23ec:	17fd                	c.addi	x15,-1
    23ee:	cc2a                	c.swsp	x10,24(x2)
    23f0:	c42e                	c.swsp	x11,8(x2)
    23f2:	c63e                	c.swsp	x15,12(x2)
    23f4:	046020ef          	jal	x1,443a <__ledf2>
    23f8:	42e2                	c.lwsp	x5,24(x2)
    23fa:	fc054ee3          	blt	x10,x0,23d6 <cvt+0x2ea>
    23fe:	4782                	c.lwsp	x15,0(x2)
    2400:	8722                	c.mv	x14,x8
    2402:	8426                	c.mv	x8,x9
    2404:	44a2                	c.lwsp	x9,8(x2)
    2406:	0057a023          	sw	x5,0(x15)
    240a:	c43a                	c.swsp	x14,8(x2)
    240c:	c3c4                	c.sw	x9,4(x15)
    240e:	4492                	c.lwsp	x9,4(x2)
    2410:	dc22                	c.swsp	x8,56(x2)
    2412:	87a6                	c.mv	x15,x9
    2414:	bd95                	c.j	2288 <cvt+0x19c>
    2416:	4492                	c.lwsp	x9,4(x2)
    2418:	c602                	c.swsp	x0,12(x2)
    241a:	87a6                	c.mv	x15,x9
    241c:	b5b5                	c.j	2288 <cvt+0x19c>
    241e:	4785                	c.li	x15,1
    2420:	c31c                	c.sw	x15,0(x14)
    2422:	800007b7          	lui	x15,0x80000
    2426:	8c3d                	c.xor	x8,x15
    2428:	b311                	c.j	212c <cvt+0x40>
    242a:	00078023          	sb	x0,0(x15) # 80000000 <_stack_start+0x7ff00004>
    242e:	40e6                	c.lwsp	x1,88(x2)
    2430:	4456                	c.lwsp	x8,84(x2)
    2432:	4512                	c.lwsp	x10,4(x2)
    2434:	44c6                	c.lwsp	x9,80(x2)
    2436:	05c10113          	addi	x2,x2,92
    243a:	8082                	c.jr	x1
    243c:	4432                	c.lwsp	x8,12(x2)
    243e:	47d2                	c.lwsp	x15,20(x2)
    2440:	ecf463e3          	bltu	x8,x15,2306 <cvt+0x21a>
    2444:	4792                	c.lwsp	x15,4(x2)
    2446:	4512                	c.lwsp	x10,4(x2)
    2448:	040787a3          	sb	x0,79(x15)
    244c:	40e6                	c.lwsp	x1,88(x2)
    244e:	4456                	c.lwsp	x8,84(x2)
    2450:	44c6                	c.lwsp	x9,80(x2)
    2452:	05c10113          	addi	x2,x2,92
    2456:	8082                	c.jr	x1
    2458:	03900593          	addi	x11,x0,57
    245c:	03100513          	addi	x10,x0,49
    2460:	eed378e3          	bgeu	x6,x13,2350 <cvt+0x264>
    2464:	56d2                	c.lwsp	x13,52(x2)
    2466:	4792                	c.lwsp	x15,4(x2)
    2468:	00c70023          	sb	x12,0(x14)
    246c:	02e7e063          	bltu	x15,x14,248c <cvt+0x3a0>
    2470:	00a70023          	sb	x10,0(x14)
    2474:	429c                	c.lw	x15,0(x13)
    2476:	0785                	c.addi	x15,1
    2478:	c29c                	c.sw	x15,0(x13)
    247a:	00074783          	lbu	x15,0(x14)
    247e:	ecf5f9e3          	bgeu	x11,x15,2350 <cvt+0x264>
    2482:	4792                	c.lwsp	x15,4(x2)
    2484:	00c70023          	sb	x12,0(x14)
    2488:	fee7f4e3          	bgeu	x15,x14,2470 <cvt+0x384>
    248c:	fff74783          	lbu	x15,-1(x14)
    2490:	fff70313          	addi	x6,x14,-1
    2494:	0785                	c.addi	x15,1
    2496:	0ff7f793          	andi	x15,x15,255
    249a:	fef70fa3          	sb	x15,-1(x14)
    249e:	eaf5f9e3          	bgeu	x11,x15,2350 <cvt+0x264>
    24a2:	871a                	c.mv	x14,x6
    24a4:	b7c9                	c.j	2466 <cvt+0x37a>
    24a6:	00a70023          	sb	x10,0(x14)
    24aa:	00032783          	lw	x15,0(x6)
    24ae:	0785                	c.addi	x15,1
    24b0:	00f32023          	sw	x15,0(x6)
    24b4:	0086f463          	bgeu	x13,x8,24bc <cvt+0x3d0>
    24b8:	00c40023          	sb	x12,0(x8)
    24bc:	00074783          	lbu	x15,0(x14)
    24c0:	0405                	c.addi	x8,1
    24c2:	e6f5e9e3          	bltu	x11,x15,2334 <cvt+0x248>
    24c6:	b569                	c.j	2350 <cvt+0x264>
    24c8:	4792                	c.lwsp	x15,4(x2)
    24ca:	46d2                	c.lwsp	x13,20(x2)
    24cc:	0405                	c.addi	x8,1
    24ce:	fff44703          	lbu	x14,-1(x8)
    24d2:	0785                	c.addi	x15,1
    24d4:	fee78fa3          	sb	x14,-1(x15)
    24d8:	fe869ae3          	bne	x13,x8,24cc <cvt+0x3e0>
    24dc:	bb79                	c.j	227a <cvt+0x18e>
    24de:	4492                	c.lwsp	x9,4(x2)
    24e0:	87a6                	c.mv	x15,x9
    24e2:	b35d                	c.j	2288 <cvt+0x19c>

000024e4 <ecvt>:
    24e4:	1141                	c.addi	x2,-16
    24e6:	4785                	c.li	x15,1
    24e8:	c03e                	c.swsp	x15,0(x2)
    24ea:	6799                	c.lui	x15,0x6
    24ec:	6a878793          	addi	x15,x15,1704 # 66a8 <_bss_start>
    24f0:	c606                	c.swsp	x1,12(x2)
    24f2:	3eed                	c.jal	20ec <cvt>
    24f4:	40b2                	c.lwsp	x1,12(x2)
    24f6:	0141                	c.addi	x2,16
    24f8:	8082                	c.jr	x1

000024fa <ecvtbuf>:
    24fa:	1141                	c.addi	x2,-16
    24fc:	4305                	c.li	x6,1
    24fe:	c01a                	c.swsp	x6,0(x2)
    2500:	c606                	c.swsp	x1,12(x2)
    2502:	36ed                	c.jal	20ec <cvt>
    2504:	40b2                	c.lwsp	x1,12(x2)
    2506:	0141                	c.addi	x2,16
    2508:	8082                	c.jr	x1

0000250a <fcvt>:
    250a:	1141                	c.addi	x2,-16
    250c:	6799                	c.lui	x15,0x6
    250e:	c002                	c.swsp	x0,0(x2)
    2510:	6a878793          	addi	x15,x15,1704 # 66a8 <_bss_start>
    2514:	c606                	c.swsp	x1,12(x2)
    2516:	3ed9                	c.jal	20ec <cvt>
    2518:	40b2                	c.lwsp	x1,12(x2)
    251a:	0141                	c.addi	x2,16
    251c:	8082                	c.jr	x1

0000251e <fcvtbuf>:
    251e:	1141                	c.addi	x2,-16
    2520:	c002                	c.swsp	x0,0(x2)
    2522:	c606                	c.swsp	x1,12(x2)
    2524:	36e1                	c.jal	20ec <cvt>
    2526:	40b2                	c.lwsp	x1,12(x2)
    2528:	0141                	c.addi	x2,16
    252a:	8082                	c.jr	x1

0000252c <number>:
    252c:	f7c10113          	addi	x2,x2,-132
    2530:	dca6                	c.swsp	x9,120(x2)
    2532:	c106                	c.swsp	x1,128(x2)
    2534:	dea2                	c.swsp	x8,124(x2)
    2536:	0407f393          	andi	x7,x15,64
    253a:	ca36                	c.swsp	x13,20(x2)
    253c:	d03a                	c.swsp	x14,32(x2)
    253e:	832a                	c.mv	x6,x10
    2540:	82ae                	c.mv	x5,x11
    2542:	84b2                	c.mv	x9,x12
    2544:	18038c63          	beq	x7,x0,26dc <number+0x1b0>
    2548:	00006737          	lui	x14,0x6
    254c:	62870713          	addi	x14,x14,1576 # 6628 <__clz_tab+0x618>
    2550:	c83a                	c.swsp	x14,16(x2)
    2552:	0107f713          	andi	x14,x15,16
    2556:	ce3a                	c.swsp	x14,28(x2)
    2558:	16071563          	bne	x14,x0,26c2 <number+0x196>
    255c:	0117f693          	andi	x13,x15,17
    2560:	d236                	c.swsp	x13,36(x2)
    2562:	03000693          	addi	x13,x0,48
    2566:	0017f713          	andi	x14,x15,1
    256a:	d636                	c.swsp	x13,44(x2)
    256c:	14070d63          	beq	x14,x0,26c6 <number+0x19a>
    2570:	0207f693          	andi	x13,x15,32
    2574:	0027f713          	andi	x14,x15,2
    2578:	cc36                	c.swsp	x13,24(x2)
    257a:	16071763          	bne	x14,x0,26e8 <number+0x1bc>
    257e:	d402                	c.swsp	x0,40(x2)
    2580:	47e2                	c.lwsp	x15,24(x2)
    2582:	cf81                	c.beqz	x15,259a <number+0x6e>
    2584:	47c1                	c.li	x15,16
    2586:	20f48063          	beq	x9,x15,2786 <number+0x25a>
    258a:	4752                	c.lwsp	x14,20(x2)
    258c:	ff848793          	addi	x15,x9,-8
    2590:	0017b793          	sltiu	x15,x15,1
    2594:	40f707b3          	sub	x15,x14,x15
    2598:	ca3e                	c.swsp	x15,20(x2)
    259a:	18029163          	bne	x5,x0,271c <number+0x1f0>
    259e:	03000793          	addi	x15,x0,48
    25a2:	02f10a23          	sb	x15,52(x2)
    25a6:	4785                	c.li	x15,1
    25a8:	c43e                	c.swsp	x15,8(x2)
    25aa:	185c                	c.addi4spn	x15,x2,52
    25ac:	4401                	c.li	x8,0
    25ae:	4705                	c.li	x14,1
    25b0:	c63e                	c.swsp	x15,12(x2)
    25b2:	46a2                	c.lwsp	x13,8(x2)
    25b4:	5602                	c.lwsp	x12,32(x2)
    25b6:	87b6                	c.mv	x15,x13
    25b8:	00c6d363          	bge	x13,x12,25be <number+0x92>
    25bc:	87b2                	c.mv	x15,x12
    25be:	46d2                	c.lwsp	x13,20(x2)
    25c0:	5612                	c.lwsp	x12,36(x2)
    25c2:	40f682b3          	sub	x5,x13,x15
    25c6:	fff28693          	addi	x13,x5,-1
    25ca:	e215                	c.bnez	x12,25ee <number+0xc2>
    25cc:	1c505a63          	bge	x0,x5,27a0 <number+0x274>
    25d0:	8616                	c.mv	x12,x5
    25d2:	851a                	c.mv	x10,x6
    25d4:	02000593          	addi	x11,x0,32
    25d8:	9316                	c.add	x6,x5
    25da:	c83a                	c.swsp	x14,16(x2)
    25dc:	c23e                	c.swsp	x15,4(x2)
    25de:	c01a                	c.swsp	x6,0(x2)
    25e0:	750020ef          	jal	x1,4d30 <memset>
    25e4:	4742                	c.lwsp	x14,16(x2)
    25e6:	4792                	c.lwsp	x15,4(x2)
    25e8:	4302                	c.lwsp	x6,0(x2)
    25ea:	56f9                	c.li	x13,-2
    25ec:	52fd                	c.li	x5,-1
    25ee:	5622                	c.lwsp	x12,40(x2)
    25f0:	c601                	c.beqz	x12,25f8 <number+0xcc>
    25f2:	00c30023          	sb	x12,0(x6)
    25f6:	0305                	c.addi	x6,1
    25f8:	4662                	c.lwsp	x12,24(x2)
    25fa:	c619                	c.beqz	x12,2608 <number+0xdc>
    25fc:	4621                	c.li	x12,8
    25fe:	18c48863          	beq	x9,x12,278e <number+0x262>
    2602:	4641                	c.li	x12,16
    2604:	16c48763          	beq	x9,x12,2772 <number+0x246>
    2608:	4672                	c.lwsp	x12,28(x2)
    260a:	ee1d                	c.bnez	x12,2648 <number+0x11c>
    260c:	18505763          	bge	x0,x5,279a <number+0x26e>
    2610:	fff6c293          	xori	x5,x13,-1
    2614:	41f2d293          	srai	x5,x5,0x1f
    2618:	0056f2b3          	and	x5,x13,x5
    261c:	55b2                	c.lwsp	x11,44(x2)
    261e:	00128493          	addi	x9,x5,1
    2622:	851a                	c.mv	x10,x6
    2624:	8626                	c.mv	x12,x9
    2626:	ca3a                	c.swsp	x14,20(x2)
    2628:	c83e                	c.swsp	x15,16(x2)
    262a:	c236                	c.swsp	x13,4(x2)
    262c:	c016                	c.swsp	x5,0(x2)
    262e:	702020ef          	jal	x1,4d30 <memset>
    2632:	4692                	c.lwsp	x13,4(x2)
    2634:	4282                	c.lwsp	x5,0(x2)
    2636:	47c2                	c.lwsp	x15,16(x2)
    2638:	16fd                	c.addi	x13,-1
    263a:	4752                	c.lwsp	x14,20(x2)
    263c:	405682b3          	sub	x5,x13,x5
    2640:	00950333          	add	x6,x10,x9
    2644:	fff28693          	addi	x13,x5,-1
    2648:	4622                	c.lwsp	x12,8(x2)
    264a:	02f65363          	bge	x12,x15,2670 <number+0x144>
    264e:	c83a                	c.swsp	x14,16(x2)
    2650:	4722                	c.lwsp	x14,8(x2)
    2652:	851a                	c.mv	x10,x6
    2654:	03000593          	addi	x11,x0,48
    2658:	40e784b3          	sub	x9,x15,x14
    265c:	8626                	c.mv	x12,x9
    265e:	c236                	c.swsp	x13,4(x2)
    2660:	c016                	c.swsp	x5,0(x2)
    2662:	6ce020ef          	jal	x1,4d30 <memset>
    2666:	4282                	c.lwsp	x5,0(x2)
    2668:	4692                	c.lwsp	x13,4(x2)
    266a:	4742                	c.lwsp	x14,16(x2)
    266c:	00950333          	add	x6,x10,x9
    2670:	47b2                	c.lwsp	x15,12(x2)
    2672:	861a                	c.mv	x12,x6
    2674:	4505                	c.li	x10,1
    2676:	008785b3          	add	x11,x15,x8
    267a:	0605                	c.addi	x12,1
    267c:	0005c383          	lbu	x7,0(x11)
    2680:	40c507b3          	sub	x15,x10,x12
    2684:	97a2                	c.add	x15,x8
    2686:	fe760fa3          	sb	x7,-1(x12) # ffff9fff <_stack_start+0xffefa003>
    268a:	979a                	c.add	x15,x6
    268c:	15fd                	c.addi	x11,-1
    268e:	fef046e3          	blt	x0,x15,267a <number+0x14e>
    2692:	933a                	c.add	x6,x14
    2694:	02505063          	bge	x0,x5,26b4 <number+0x188>
    2698:	fff6c413          	xori	x8,x13,-1
    269c:	847d                	c.srai	x8,0x1f
    269e:	8ee1                	c.and	x13,x8
    26a0:	00168413          	addi	x8,x13,1
    26a4:	851a                	c.mv	x10,x6
    26a6:	8622                	c.mv	x12,x8
    26a8:	02000593          	addi	x11,x0,32
    26ac:	684020ef          	jal	x1,4d30 <memset>
    26b0:	00850333          	add	x6,x10,x8
    26b4:	408a                	c.lwsp	x1,128(x2)
    26b6:	5476                	c.lwsp	x8,124(x2)
    26b8:	54e6                	c.lwsp	x9,120(x2)
    26ba:	851a                	c.mv	x10,x6
    26bc:	08410113          	addi	x2,x2,132
    26c0:	8082                	c.jr	x1
    26c2:	9bf9                	c.andi	x15,-2
    26c4:	d23a                	c.swsp	x14,36(x2)
    26c6:	02000713          	addi	x14,x0,32
    26ca:	0207f693          	andi	x13,x15,32
    26ce:	d63a                	c.swsp	x14,44(x2)
    26d0:	cc36                	c.swsp	x13,24(x2)
    26d2:	0027f713          	andi	x14,x15,2
    26d6:	ea0704e3          	beq	x14,x0,257e <number+0x52>
    26da:	a039                	c.j	26e8 <number+0x1bc>
    26dc:	00006737          	lui	x14,0x6
    26e0:	60070713          	addi	x14,x14,1536 # 6600 <__clz_tab+0x5f0>
    26e4:	c83a                	c.swsp	x14,16(x2)
    26e6:	b5b5                	c.j	2552 <number+0x26>
    26e8:	0202c063          	blt	x5,x0,2708 <number+0x1dc>
    26ec:	0047f713          	andi	x14,x15,4
    26f0:	eb35                	c.bnez	x14,2764 <number+0x238>
    26f2:	8ba1                	c.andi	x15,8
    26f4:	d402                	c.swsp	x0,40(x2)
    26f6:	e80785e3          	beq	x15,x0,2580 <number+0x54>
    26fa:	47d2                	c.lwsp	x15,20(x2)
    26fc:	17fd                	c.addi	x15,-1
    26fe:	ca3e                	c.swsp	x15,20(x2)
    2700:	02000793          	addi	x15,x0,32
    2704:	d43e                	c.swsp	x15,40(x2)
    2706:	bdad                	c.j	2580 <number+0x54>
    2708:	47d2                	c.lwsp	x15,20(x2)
    270a:	405002b3          	sub	x5,x0,x5
    270e:	17fd                	c.addi	x15,-1
    2710:	ca3e                	c.swsp	x15,20(x2)
    2712:	02d00793          	addi	x15,x0,45
    2716:	d43e                	c.swsp	x15,40(x2)
    2718:	e60696e3          	bne	x13,x0,2584 <number+0x58>
    271c:	185c                	c.addi4spn	x15,x2,52
    271e:	4401                	c.li	x8,0
    2720:	c63e                	c.swsp	x15,12(x2)
    2722:	d81a                	c.swsp	x6,48(x2)
    2724:	a011                	c.j	2728 <number+0x1fc>
    2726:	843a                	c.mv	x8,x14
    2728:	85a6                	c.mv	x11,x9
    272a:	8516                	c.mv	x10,x5
    272c:	c016                	c.swsp	x5,0(x2)
    272e:	3f2020ef          	jal	x1,4b20 <__umodsi3>
    2732:	47c2                	c.lwsp	x15,16(x2)
    2734:	46b2                	c.lwsp	x13,12(x2)
    2736:	4282                	c.lwsp	x5,0(x2)
    2738:	953e                	c.add	x10,x15
    273a:	00054603          	lbu	x12,0(x10)
    273e:	00140713          	addi	x14,x8,1
    2742:	96ba                	c.add	x13,x14
    2744:	8516                	c.mv	x10,x5
    2746:	85a6                	c.mv	x11,x9
    2748:	fec68fa3          	sb	x12,-1(x13)
    274c:	c216                	c.swsp	x5,4(x2)
    274e:	c43a                	c.swsp	x14,8(x2)
    2750:	c03a                	c.swsp	x14,0(x2)
    2752:	3a2020ef          	jal	x1,4af4 <__udivsi3>
    2756:	4792                	c.lwsp	x15,4(x2)
    2758:	82aa                	c.mv	x5,x10
    275a:	4702                	c.lwsp	x14,0(x2)
    275c:	fc97f5e3          	bgeu	x15,x9,2726 <number+0x1fa>
    2760:	5342                	c.lwsp	x6,48(x2)
    2762:	bd81                	c.j	25b2 <number+0x86>
    2764:	47d2                	c.lwsp	x15,20(x2)
    2766:	17fd                	c.addi	x15,-1
    2768:	ca3e                	c.swsp	x15,20(x2)
    276a:	02b00793          	addi	x15,x0,43
    276e:	d43e                	c.swsp	x15,40(x2)
    2770:	bd01                	c.j	2580 <number+0x54>
    2772:	03000613          	addi	x12,x0,48
    2776:	00c30023          	sb	x12,0(x6)
    277a:	07800613          	addi	x12,x0,120
    277e:	00c300a3          	sb	x12,1(x6)
    2782:	0309                	c.addi	x6,2
    2784:	b551                	c.j	2608 <number+0xdc>
    2786:	47d2                	c.lwsp	x15,20(x2)
    2788:	17f9                	c.addi	x15,-2
    278a:	ca3e                	c.swsp	x15,20(x2)
    278c:	b539                	c.j	259a <number+0x6e>
    278e:	03000613          	addi	x12,x0,48
    2792:	00c30023          	sb	x12,0(x6)
    2796:	0305                	c.addi	x6,1
    2798:	bd85                	c.j	2608 <number+0xdc>
    279a:	82b6                	c.mv	x5,x13
    279c:	16fd                	c.addi	x13,-1
    279e:	b56d                	c.j	2648 <number+0x11c>
    27a0:	ffe28613          	addi	x12,x5,-2
    27a4:	82b6                	c.mv	x5,x13
    27a6:	86b2                	c.mv	x13,x12
    27a8:	b599                	c.j	25ee <number+0xc2>

000027aa <print_chr>:
    27aa:	001007b7          	lui	x15,0x100
    27ae:	fea78fa3          	sb	x10,-1(x15) # fffff <_stack_start+0x3>
    27b2:	8082                	c.jr	x1

000027b4 <print_str>:
    27b4:	00054783          	lbu	x15,0(x10)
    27b8:	cb89                	c.beqz	x15,27ca <print_str+0x16>
    27ba:	00100737          	lui	x14,0x100
    27be:	0505                	c.addi	x10,1
    27c0:	fef70fa3          	sb	x15,-1(x14) # fffff <_stack_start+0x3>
    27c4:	00054783          	lbu	x15,0(x10)
    27c8:	fbfd                	c.bnez	x15,27be <print_str+0xa>
    27ca:	8082                	c.jr	x1

000027cc <print_dec>:
    27cc:	1121                	c.addi	x2,-24
    27ce:	c822                	c.swsp	x8,16(x2)
    27d0:	c626                	c.swsp	x9,12(x2)
    27d2:	ca06                	c.swsp	x1,20(x2)
    27d4:	84aa                	c.mv	x9,x10
    27d6:	840a                	c.mv	x8,x2
    27d8:	a819                	c.j	27ee <print_dec+0x22>
    27da:	346020ef          	jal	x1,4b20 <__umodsi3>
    27de:	0405                	c.addi	x8,1
    27e0:	fea40fa3          	sb	x10,-1(x8)
    27e4:	45a9                	c.li	x11,10
    27e6:	8526                	c.mv	x10,x9
    27e8:	30c020ef          	jal	x1,4af4 <__udivsi3>
    27ec:	84aa                	c.mv	x9,x10
    27ee:	45a9                	c.li	x11,10
    27f0:	8526                	c.mv	x10,x9
    27f2:	f4e5                	c.bnez	x9,27da <print_dec+0xe>
    27f4:	fe2403e3          	beq	x8,x2,27da <print_dec+0xe>
    27f8:	00100737          	lui	x14,0x100
    27fc:	147d                	c.addi	x8,-1
    27fe:	00044783          	lbu	x15,0(x8)
    2802:	03078793          	addi	x15,x15,48
    2806:	0ff7f793          	andi	x15,x15,255
    280a:	fef70fa3          	sb	x15,-1(x14) # fffff <_stack_start+0x3>
    280e:	fe2417e3          	bne	x8,x2,27fc <print_dec+0x30>
    2812:	40d2                	c.lwsp	x1,20(x2)
    2814:	4442                	c.lwsp	x8,16(x2)
    2816:	44b2                	c.lwsp	x9,12(x2)
    2818:	0161                	c.addi	x2,24
    281a:	8082                	c.jr	x1

0000281c <print_hex>:
    281c:	15fd                	c.addi	x11,-1
    281e:	058a                	c.slli	x11,0x2
    2820:	0205c463          	blt	x11,x0,2848 <print_hex+0x2c>
    2824:	00006737          	lui	x14,0x6
    2828:	5671                	c.li	x12,-4
    282a:	65070713          	addi	x14,x14,1616 # 6650 <__clz_tab+0x640>
    282e:	001006b7          	lui	x13,0x100
    2832:	00b557b3          	srl	x15,x10,x11
    2836:	8bbd                	c.andi	x15,15
    2838:	97ba                	c.add	x15,x14
    283a:	0007c783          	lbu	x15,0(x15)
    283e:	15f1                	c.addi	x11,-4
    2840:	fef68fa3          	sb	x15,-1(x13) # fffff <_stack_start+0x3>
    2844:	fec597e3          	bne	x11,x12,2832 <print_hex+0x16>
    2848:	8082                	c.jr	x1

0000284a <uart_send_char>:
    284a:	001007b7          	lui	x15,0x100
    284e:	fea78fa3          	sb	x10,-1(x15) # fffff <_stack_start+0x3>
    2852:	8082                	c.jr	x1

00002854 <ee_printf>:
    2854:	e0c10113          	addi	x2,x2,-500
    2858:	1c812c23          	sw	x8,472(x2)
    285c:	1c112e23          	sw	x1,476(x2)
    2860:	1c912a23          	sw	x9,468(x2)
    2864:	1eb12023          	sw	x11,480(x2)
    2868:	1ec12223          	sw	x12,484(x2)
    286c:	1ed12423          	sw	x13,488(x2)
    2870:	1ee12623          	sw	x14,492(x2)
    2874:	1ef12823          	sw	x15,496(x2)
    2878:	00054783          	lbu	x15,0(x10)
    287c:	1380                	c.addi4spn	x8,x2,480
    287e:	d422                	c.swsp	x8,40(x2)
    2880:	260786e3          	beq	x15,x0,32ec <ee_printf+0xa98>
    2884:	09d8                	c.addi4spn	x14,x2,212
    2886:	c23a                	c.swsp	x14,4(x2)
    2888:	83ba                	c.mv	x7,x14
    288a:	832a                	c.mv	x6,x10
    288c:	84a2                	c.mv	x9,x8
    288e:	02500713          	addi	x14,x0,37
    2892:	04e78563          	beq	x15,x14,28dc <ee_printf+0x88>
    2896:	00f38023          	sb	x15,0(x7)
    289a:	00134783          	lbu	x15,1(x6)
    289e:	0385                	c.addi	x7,1
    28a0:	0305                	c.addi	x6,1
    28a2:	f7f5                	c.bnez	x15,288e <ee_printf+0x3a>
    28a4:	00038023          	sb	x0,0(x7)
    28a8:	0d414703          	lbu	x14,212(x2)
    28ac:	240709e3          	beq	x14,x0,32fe <ee_printf+0xaaa>
    28b0:	4792                	c.lwsp	x15,4(x2)
    28b2:	4685                	c.li	x13,1
    28b4:	00100637          	lui	x12,0x100
    28b8:	8e9d                	c.sub	x13,x15
    28ba:	00d78533          	add	x10,x15,x13
    28be:	fee60fa3          	sb	x14,-1(x12) # fffff <_stack_start+0x3>
    28c2:	0785                	c.addi	x15,1
    28c4:	0007c703          	lbu	x14,0(x15)
    28c8:	fb6d                	c.bnez	x14,28ba <ee_printf+0x66>
    28ca:	1dc12083          	lw	x1,476(x2)
    28ce:	1d812403          	lw	x8,472(x2)
    28d2:	1d412483          	lw	x9,468(x2)
    28d6:	1f410113          	addi	x2,x2,500
    28da:	8082                	c.jr	x1
    28dc:	00134683          	lbu	x13,1(x6)
    28e0:	6719                	c.lui	x14,0x6
    28e2:	4541                	c.li	x10,16
    28e4:	fe068613          	addi	x12,x13,-32
    28e8:	0ff67613          	andi	x12,x12,255
    28ec:	d9470593          	addi	x11,x14,-620 # 5d94 <errpat+0x28>
    28f0:	4781                	c.li	x15,0
    28f2:	00130713          	addi	x14,x6,1
    28f6:	02c56363          	bltu	x10,x12,291c <ee_printf+0xc8>
    28fa:	060a                	c.slli	x12,0x2
    28fc:	962e                	c.add	x12,x11
    28fe:	4210                	c.lw	x12,0(x12)
    2900:	8602                	c.jr	x12
    2902:	0017e793          	ori	x15,x15,1
    2906:	833a                	c.mv	x6,x14
    2908:	00134683          	lbu	x13,1(x6)
    290c:	00130713          	addi	x14,x6,1
    2910:	fe068613          	addi	x12,x13,-32
    2914:	0ff67613          	andi	x12,x12,255
    2918:	fec571e3          	bgeu	x10,x12,28fa <ee_printf+0xa6>
    291c:	fd068613          	addi	x12,x13,-48
    2920:	0ff67613          	andi	x12,x12,255
    2924:	45a5                	c.li	x11,9
    2926:	0ac5f763          	bgeu	x11,x12,29d4 <ee_printf+0x180>
    292a:	02a00613          	addi	x12,x0,42
    292e:	547d                	c.li	x8,-1
    2930:	0cc68663          	beq	x13,x12,29fc <ee_printf+0x1a8>
    2934:	02e00613          	addi	x12,x0,46
    2938:	537d                	c.li	x6,-1
    293a:	06c68b63          	beq	x13,x12,29b0 <ee_printf+0x15c>
    293e:	0df6f613          	andi	x12,x13,223
    2942:	04c00593          	addi	x11,x0,76
    2946:	04b60163          	beq	x12,x11,2988 <ee_printf+0x134>
    294a:	fbf68613          	addi	x12,x13,-65
    294e:	0ff67613          	andi	x12,x12,255
    2952:	03700593          	addi	x11,x0,55
    2956:	0ac5ede3          	bltu	x11,x12,3210 <ee_printf+0x9bc>
    295a:	6599                	c.lui	x11,0x6
    295c:	060a                	c.slli	x12,0x2
    295e:	dd858593          	addi	x11,x11,-552 # 5dd8 <errpat+0x6c>
    2962:	962e                	c.add	x12,x11
    2964:	4210                	c.lw	x12,0(x12)
    2966:	8602                	c.jr	x12
    2968:	0107e793          	ori	x15,x15,16
    296c:	833a                	c.mv	x6,x14
    296e:	bf69                	c.j	2908 <ee_printf+0xb4>
    2970:	0047e793          	ori	x15,x15,4
    2974:	833a                	c.mv	x6,x14
    2976:	bf49                	c.j	2908 <ee_printf+0xb4>
    2978:	0207e793          	ori	x15,x15,32
    297c:	833a                	c.mv	x6,x14
    297e:	b769                	c.j	2908 <ee_printf+0xb4>
    2980:	0087e793          	ori	x15,x15,8
    2984:	833a                	c.mv	x6,x14
    2986:	b749                	c.j	2908 <ee_printf+0xb4>
    2988:	00174583          	lbu	x11,1(x14)
    298c:	00170293          	addi	x5,x14,1
    2990:	c016                	c.swsp	x5,0(x2)
    2992:	fbf58613          	addi	x12,x11,-65
    2996:	0ff67613          	andi	x12,x12,255
    299a:	03700293          	addi	x5,x0,55
    299e:	06c2ebe3          	bltu	x5,x12,3214 <ee_printf+0x9c0>
    29a2:	6299                	c.lui	x5,0x6
    29a4:	060a                	c.slli	x12,0x2
    29a6:	eb828293          	addi	x5,x5,-328 # 5eb8 <errpat+0x14c>
    29aa:	9616                	c.add	x12,x5
    29ac:	4210                	c.lw	x12,0(x12)
    29ae:	8602                	c.jr	x12
    29b0:	00174683          	lbu	x13,1(x14)
    29b4:	4525                	c.li	x10,9
    29b6:	00170613          	addi	x12,x14,1
    29ba:	fd068593          	addi	x11,x13,-48
    29be:	0ff5f593          	andi	x11,x11,255
    29c2:	06b57f63          	bgeu	x10,x11,2a40 <ee_printf+0x1ec>
    29c6:	02a00593          	addi	x11,x0,42
    29ca:	08b68f63          	beq	x13,x11,2a68 <ee_printf+0x214>
    29ce:	8732                	c.mv	x14,x12
    29d0:	4301                	c.li	x6,0
    29d2:	b7b5                	c.j	293e <ee_printf+0xea>
    29d4:	4401                	c.li	x8,0
    29d6:	8522                	c.mv	x10,x8
    29d8:	00251413          	slli	x8,x10,0x2
    29dc:	942a                	c.add	x8,x10
    29de:	0705                	c.addi	x14,1
    29e0:	0406                	c.slli	x8,0x1
    29e2:	9436                	c.add	x8,x13
    29e4:	00074683          	lbu	x13,0(x14)
    29e8:	fd040513          	addi	x10,x8,-48
    29ec:	fd068613          	addi	x12,x13,-48
    29f0:	0ff67613          	andi	x12,x12,255
    29f4:	fec5f2e3          	bgeu	x11,x12,29d8 <ee_printf+0x184>
    29f8:	842a                	c.mv	x8,x10
    29fa:	bf2d                	c.j	2934 <ee_printf+0xe0>
    29fc:	4080                	c.lw	x8,0(x9)
    29fe:	00230713          	addi	x14,x6,2
    2a02:	00234683          	lbu	x13,2(x6)
    2a06:	0491                	c.addi	x9,4
    2a08:	f20456e3          	bge	x8,x0,2934 <ee_printf+0xe0>
    2a0c:	40800433          	sub	x8,x0,x8
    2a10:	0107e793          	ori	x15,x15,16
    2a14:	b705                	c.j	2934 <ee_printf+0xe0>
    2a16:	c03a                	c.swsp	x14,0(x2)
    2a18:	0407e793          	ori	x15,x15,64
    2a1c:	4641                	c.li	x12,16
    2a1e:	00448293          	addi	x5,x9,4
    2a22:	408c                	c.lw	x11,0(x9)
    2a24:	8496                	c.mv	x9,x5
    2a26:	871a                	c.mv	x14,x6
    2a28:	86a2                	c.mv	x13,x8
    2a2a:	851e                	c.mv	x10,x7
    2a2c:	3601                	c.jal	252c <number>
    2a2e:	4702                	c.lwsp	x14,0(x2)
    2a30:	83aa                	c.mv	x7,x10
    2a32:	00174783          	lbu	x15,1(x14)
    2a36:	00170313          	addi	x6,x14,1
    2a3a:	e4079ae3          	bne	x15,x0,288e <ee_printf+0x3a>
    2a3e:	b59d                	c.j	28a4 <ee_printf+0x50>
    2a40:	4301                	c.li	x6,0
    2a42:	4725                	c.li	x14,9
    2a44:	00231593          	slli	x11,x6,0x2
    2a48:	959a                	c.add	x11,x6
    2a4a:	0605                	c.addi	x12,1
    2a4c:	0586                	c.slli	x11,0x1
    2a4e:	95b6                	c.add	x11,x13
    2a50:	00064683          	lbu	x13,0(x12)
    2a54:	fd058313          	addi	x6,x11,-48
    2a58:	fd068513          	addi	x10,x13,-48
    2a5c:	0ff57513          	andi	x10,x10,255
    2a60:	fea772e3          	bgeu	x14,x10,2a44 <ee_printf+0x1f0>
    2a64:	8732                	c.mv	x14,x12
    2a66:	bde1                	c.j	293e <ee_printf+0xea>
    2a68:	0004a303          	lw	x6,0(x9)
    2a6c:	00274683          	lbu	x13,2(x14)
    2a70:	0491                	c.addi	x9,4
    2a72:	fff34613          	xori	x12,x6,-1
    2a76:	867d                	c.srai	x12,0x1f
    2a78:	00c37333          	and	x6,x6,x12
    2a7c:	0709                	c.addi	x14,2
    2a7e:	b5c1                	c.j	293e <ee_printf+0xea>
    2a80:	c03a                	c.swsp	x14,0(x2)
    2a82:	4629                	c.li	x12,10
    2a84:	bf69                	c.j	2a1e <ee_printf+0x1ca>
    2a86:	c03a                	c.swsp	x14,0(x2)
    2a88:	4094                	c.lw	x13,0(x9)
    2a8a:	0491                	c.addi	x9,4
    2a8c:	200684e3          	beq	x13,x0,3494 <ee_printf+0xc40>
    2a90:	0006c703          	lbu	x14,0(x13)
    2a94:	260706e3          	beq	x14,x0,3500 <ee_printf+0xcac>
    2a98:	260304e3          	beq	x6,x0,3500 <ee_printf+0xcac>
    2a9c:	8736                	c.mv	x14,x13
    2a9e:	a029                	c.j	2aa8 <ee_printf+0x254>
    2aa0:	40670633          	sub	x12,x14,x6
    2aa4:	00d60663          	beq	x12,x13,2ab0 <ee_printf+0x25c>
    2aa8:	0705                	c.addi	x14,1
    2aaa:	00074603          	lbu	x12,0(x14)
    2aae:	fa6d                	c.bnez	x12,2aa0 <ee_printf+0x24c>
    2ab0:	8bc1                	c.andi	x15,16
    2ab2:	8f15                	c.sub	x14,x13
    2ab4:	76078f63          	beq	x15,x0,3232 <ee_printf+0x9de>
    2ab8:	08e05663          	bge	x0,x14,2b44 <ee_printf+0x2f0>
    2abc:	00438613          	addi	x12,x7,4
    2ac0:	00468593          	addi	x11,x13,4
    2ac4:	00c6b633          	sltu	x12,x13,x12
    2ac8:	00b3b5b3          	sltu	x11,x7,x11
    2acc:	fff70793          	addi	x15,x14,-1
    2ad0:	00164613          	xori	x12,x12,1
    2ad4:	0015c593          	xori	x11,x11,1
    2ad8:	0097b793          	sltiu	x15,x15,9
    2adc:	8e4d                	c.or	x12,x11
    2ade:	0017c793          	xori	x15,x15,1
    2ae2:	8ff1                	c.and	x15,x12
    2ae4:	2a0786e3          	beq	x15,x0,3590 <ee_printf+0xd3c>
    2ae8:	00d3e7b3          	or	x15,x7,x13
    2aec:	8b8d                	c.andi	x15,3
    2aee:	2a0791e3          	bne	x15,x0,3590 <ee_printf+0xd3c>
    2af2:	ffc77513          	andi	x10,x14,-4
    2af6:	879e                	c.mv	x15,x7
    2af8:	8636                	c.mv	x12,x13
    2afa:	951e                	c.add	x10,x7
    2afc:	420c                	c.lw	x11,0(x12)
    2afe:	0791                	c.addi	x15,4
    2b00:	0611                	c.addi	x12,4
    2b02:	feb7ae23          	sw	x11,-4(x15)
    2b06:	fef51be3          	bne	x10,x15,2afc <ee_printf+0x2a8>
    2b0a:	ffc77793          	andi	x15,x14,-4
    2b0e:	96be                	c.add	x13,x15
    2b10:	00f38533          	add	x10,x7,x15
    2b14:	00e38633          	add	x12,x7,x14
    2b18:	02e78563          	beq	x15,x14,2b42 <ee_printf+0x2ee>
    2b1c:	0006c303          	lbu	x6,0(x13)
    2b20:	00178593          	addi	x11,x15,1
    2b24:	00650023          	sb	x6,0(x10)
    2b28:	00e5dd63          	bge	x11,x14,2b42 <ee_printf+0x2ee>
    2b2c:	0016c583          	lbu	x11,1(x13)
    2b30:	0789                	c.addi	x15,2
    2b32:	00b500a3          	sb	x11,1(x10)
    2b36:	00e7d663          	bge	x15,x14,2b42 <ee_printf+0x2ee>
    2b3a:	0026c783          	lbu	x15,2(x13)
    2b3e:	00f50123          	sb	x15,2(x10)
    2b42:	83b2                	c.mv	x7,x12
    2b44:	4782                	c.lwsp	x15,0(x2)
    2b46:	00178313          	addi	x6,x15,1
    2b4a:	2c8751e3          	bge	x14,x8,360c <ee_printf+0xdb8>
    2b4e:	8c19                	c.sub	x8,x14
    2b50:	851e                	c.mv	x10,x7
    2b52:	8622                	c.mv	x12,x8
    2b54:	02000593          	addi	x11,x0,32
    2b58:	c41a                	c.swsp	x6,8(x2)
    2b5a:	1d6020ef          	jal	x1,4d30 <memset>
    2b5e:	4782                	c.lwsp	x15,0(x2)
    2b60:	008503b3          	add	x7,x10,x8
    2b64:	4322                	c.lwsp	x6,8(x2)
    2b66:	0017c783          	lbu	x15,1(x15)
    2b6a:	d20792e3          	bne	x15,x0,288e <ee_printf+0x3a>
    2b6e:	bb1d                	c.j	28a4 <ee_printf+0x50>
    2b70:	c03a                	c.swsp	x14,0(x2)
    2b72:	4621                	c.li	x12,8
    2b74:	b56d                	c.j	2a1e <ee_printf+0x1ca>
    2b76:	c03a                	c.swsp	x14,0(x2)
    2b78:	8bc1                	c.andi	x15,16
    2b7a:	147d                	c.addi	x8,-1
    2b7c:	120782e3          	beq	x15,x0,34a0 <ee_printf+0xc4c>
    2b80:	409c                	c.lw	x15,0(x9)
    2b82:	00138713          	addi	x14,x7,1
    2b86:	0491                	c.addi	x9,4
    2b88:	00f38023          	sb	x15,0(x7)
    2b8c:	4782                	c.lwsp	x15,0(x2)
    2b8e:	00178313          	addi	x6,x15,1
    2b92:	188057e3          	bge	x0,x8,3520 <ee_printf+0xccc>
    2b96:	8622                	c.mv	x12,x8
    2b98:	02000593          	addi	x11,x0,32
    2b9c:	853a                	c.mv	x10,x14
    2b9e:	c41a                	c.swsp	x6,8(x2)
    2ba0:	190020ef          	jal	x1,4d30 <memset>
    2ba4:	4782                	c.lwsp	x15,0(x2)
    2ba6:	008503b3          	add	x7,x10,x8
    2baa:	4322                	c.lwsp	x6,8(x2)
    2bac:	0017c783          	lbu	x15,1(x15)
    2bb0:	cc079fe3          	bne	x15,x0,288e <ee_printf+0x3a>
    2bb4:	b9c5                	c.j	28a4 <ee_printf+0x50>
    2bb6:	c03a                	c.swsp	x14,0(x2)
    2bb8:	00848713          	addi	x14,x9,8
    2bbc:	0107f693          	andi	x13,x15,16
    2bc0:	ca3a                	c.swsp	x14,20(x2)
    2bc2:	c836                	c.swsp	x13,16(x2)
    2bc4:	4098                	c.lw	x14,0(x9)
    2bc6:	40c4                	c.lw	x9,4(x9)
    2bc8:	76068563          	beq	x13,x0,3332 <ee_printf+0xade>
    2bcc:	9bf9                	c.andi	x15,-2
    2bce:	0027e793          	ori	x15,x15,2
    2bd2:	c43e                	c.swsp	x15,8(x2)
    2bd4:	02000793          	addi	x15,x0,32
    2bd8:	c636                	c.swsp	x13,12(x2)
    2bda:	d23e                	c.swsp	x15,36(x2)
    2bdc:	853a                	c.mv	x10,x14
    2bde:	85a6                	c.mv	x11,x9
    2be0:	4601                	c.li	x12,0
    2be2:	4681                	c.li	x13,0
    2be4:	d01e                	c.swsp	x7,32(x2)
    2be6:	ce1a                	c.swsp	x6,28(x2)
    2be8:	cc3a                	c.swsp	x14,24(x2)
    2bea:	051010ef          	jal	x1,443a <__ledf2>
    2bee:	4762                	c.lwsp	x14,24(x2)
    2bf0:	4372                	c.lwsp	x6,28(x2)
    2bf2:	5382                	c.lwsp	x7,32(x2)
    2bf4:	180545e3          	blt	x10,x0,357e <ee_printf+0xd2a>
    2bf8:	47a2                	c.lwsp	x15,8(x2)
    2bfa:	8b91                	c.andi	x15,4
    2bfc:	0e079ce3          	bne	x15,x0,34f4 <ee_printf+0xca0>
    2c00:	47a2                	c.lwsp	x15,8(x2)
    2c02:	d002                	c.swsp	x0,32(x2)
    2c04:	8ba1                	c.andi	x15,8
    2c06:	c789                	c.beqz	x15,2c10 <ee_printf+0x3bc>
    2c08:	02000793          	addi	x15,x0,32
    2c0c:	147d                	c.addi	x8,-1
    2c0e:	d03e                	c.swsp	x15,32(x2)
    2c10:	57fd                	c.li	x15,-1
    2c12:	00f31363          	bne	x6,x15,2c18 <ee_printf+0x3c4>
    2c16:	4319                	c.li	x6,6
    2c18:	853a                	c.mv	x10,x14
    2c1a:	015c                	c.addi4spn	x15,x2,132
    2c1c:	1818                	c.addi4spn	x14,x2,48
    2c1e:	861a                	c.mv	x12,x6
    2c20:	85a6                	c.mv	x11,x9
    2c22:	1074                	c.addi4spn	x13,x2,44
    2c24:	ce1e                	c.swsp	x7,28(x2)
    2c26:	cc1a                	c.swsp	x6,24(x2)
    2c28:	8f7ff0ef          	jal	x1,251e <fcvtbuf>
    2c2c:	57c2                	c.lwsp	x15,48(x2)
    2c2e:	1858                	c.addi4spn	x14,x2,52
    2c30:	4362                	c.lwsp	x6,24(x2)
    2c32:	43f2                	c.lwsp	x7,28(x2)
    2c34:	c799                	c.beqz	x15,2c42 <ee_printf+0x3ee>
    2c36:	02d00793          	addi	x15,x0,45
    2c3a:	02f10a23          	sb	x15,52(x2)
    2c3e:	03510713          	addi	x14,x2,53
    2c42:	00054683          	lbu	x13,0(x10)
    2c46:	0e0688e3          	beq	x13,x0,3536 <ee_printf+0xce2>
    2c4a:	54b2                	c.lwsp	x9,44(x2)
    2c4c:	22905ce3          	bge	x0,x9,3684 <ee_printf+0xe30>
    2c50:	00154603          	lbu	x12,1(x10)
    2c54:	00d70023          	sb	x13,0(x14)
    2c58:	00170593          	addi	x11,x14,1
    2c5c:	00250693          	addi	x13,x10,2
    2c60:	02e00293          	addi	x5,x0,46
    2c64:	fff54513          	xori	x10,x10,-1
    2c68:	87ae                	c.mv	x15,x11
    2c6a:	ea19                	c.bnez	x12,2c80 <ee_printf+0x42c>
    2c6c:	a815                	c.j	2ca0 <ee_printf+0x44c>
    2c6e:	00c58023          	sb	x12,0(x11)
    2c72:	fff6c603          	lbu	x12,-1(x13)
    2c76:	00158793          	addi	x15,x11,1
    2c7a:	c21d                	c.beqz	x12,2ca0 <ee_printf+0x44c>
    2c7c:	872e                	c.mv	x14,x11
    2c7e:	85be                	c.mv	x11,x15
    2c80:	00d507b3          	add	x15,x10,x13
    2c84:	0685                	c.addi	x13,1
    2c86:	fe9794e3          	bne	x15,x9,2c6e <ee_printf+0x41a>
    2c8a:	00c70123          	sb	x12,2(x14)
    2c8e:	fff6c603          	lbu	x12,-1(x13)
    2c92:	005700a3          	sb	x5,1(x14)
    2c96:	00270593          	addi	x11,x14,2
    2c9a:	00370793          	addi	x15,x14,3
    2c9e:	fe79                	c.bnez	x12,2c7c <ee_printf+0x428>
    2ca0:	00078023          	sb	x0,0(x15)
    2ca4:	47a2                	c.lwsp	x15,8(x2)
    2ca6:	0207f793          	andi	x15,x15,32
    2caa:	0c0780e3          	beq	x15,x0,356a <ee_printf+0xd16>
    2cae:	03414783          	lbu	x15,52(x2)
    2cb2:	100303e3          	beq	x6,x0,35b8 <ee_printf+0xd64>
    2cb6:	1844                	c.addi4spn	x9,x2,52
    2cb8:	140787e3          	beq	x15,x0,3606 <ee_printf+0xdb2>
    2cbc:	87a6                	c.mv	x15,x9
    2cbe:	1a54                	c.addi4spn	x13,x2,308
    2cc0:	a019                	c.j	2cc6 <ee_printf+0x472>
    2cc2:	0ad788e3          	beq	x15,x13,3572 <ee_printf+0xd1e>
    2cc6:	0785                	c.addi	x15,1
    2cc8:	0007c703          	lbu	x14,0(x15)
    2ccc:	fb7d                	c.bnez	x14,2cc2 <ee_printf+0x46e>
    2cce:	409784b3          	sub	x9,x15,x9
    2cd2:	8c05                	c.sub	x8,x9
    2cd4:	4732                	c.lwsp	x14,12(x2)
    2cd6:	fff40793          	addi	x15,x8,-1
    2cda:	ef11                	c.bnez	x14,2cf6 <ee_printf+0x4a2>
    2cdc:	188057e3          	bge	x0,x8,366a <ee_printf+0xe16>
    2ce0:	8622                	c.mv	x12,x8
    2ce2:	851e                	c.mv	x10,x7
    2ce4:	02000593          	addi	x11,x0,32
    2ce8:	93a2                	c.add	x7,x8
    2cea:	c41e                	c.swsp	x7,8(x2)
    2cec:	044020ef          	jal	x1,4d30 <memset>
    2cf0:	43a2                	c.lwsp	x7,8(x2)
    2cf2:	57f9                	c.li	x15,-2
    2cf4:	547d                	c.li	x8,-1
    2cf6:	5702                	c.lwsp	x14,32(x2)
    2cf8:	c701                	c.beqz	x14,2d00 <ee_printf+0x4ac>
    2cfa:	00e38023          	sb	x14,0(x7)
    2cfe:	0385                	c.addi	x7,1
    2d00:	4742                	c.lwsp	x14,16(x2)
    2d02:	eb0d                	c.bnez	x14,2d34 <ee_printf+0x4e0>
    2d04:	168059e3          	bge	x0,x8,3676 <ee_printf+0xe22>
    2d08:	fff7c413          	xori	x8,x15,-1
    2d0c:	847d                	c.srai	x8,0x1f
    2d0e:	8c7d                	c.and	x8,x15
    2d10:	5592                	c.lwsp	x11,36(x2)
    2d12:	00140713          	addi	x14,x8,1
    2d16:	851e                	c.mv	x10,x7
    2d18:	863a                	c.mv	x12,x14
    2d1a:	c63e                	c.swsp	x15,12(x2)
    2d1c:	c43a                	c.swsp	x14,8(x2)
    2d1e:	012020ef          	jal	x1,4d30 <memset>
    2d22:	47b2                	c.lwsp	x15,12(x2)
    2d24:	4722                	c.lwsp	x14,8(x2)
    2d26:	17fd                	c.addi	x15,-1
    2d28:	40878433          	sub	x8,x15,x8
    2d2c:	00e503b3          	add	x7,x10,x14
    2d30:	fff40793          	addi	x15,x8,-1
    2d34:	00905b63          	bge	x0,x9,2d4a <ee_printf+0x4f6>
    2d38:	851e                	c.mv	x10,x7
    2d3a:	8626                	c.mv	x12,x9
    2d3c:	184c                	c.addi4spn	x11,x2,52
    2d3e:	c43e                	c.swsp	x15,8(x2)
    2d40:	6cf010ef          	jal	x1,4c0e <memcpy>
    2d44:	47a2                	c.lwsp	x15,8(x2)
    2d46:	009503b3          	add	x7,x10,x9
    2d4a:	02805063          	bge	x0,x8,2d6a <ee_printf+0x516>
    2d4e:	fff7c413          	xori	x8,x15,-1
    2d52:	847d                	c.srai	x8,0x1f
    2d54:	8fe1                	c.and	x15,x8
    2d56:	00178413          	addi	x8,x15,1
    2d5a:	851e                	c.mv	x10,x7
    2d5c:	8622                	c.mv	x12,x8
    2d5e:	02000593          	addi	x11,x0,32
    2d62:	7cf010ef          	jal	x1,4d30 <memset>
    2d66:	008503b3          	add	x7,x10,x8
    2d6a:	4702                	c.lwsp	x14,0(x2)
    2d6c:	44d2                	c.lwsp	x9,20(x2)
    2d6e:	00174783          	lbu	x15,1(x14)
    2d72:	00170313          	addi	x6,x14,1
    2d76:	b0079ce3          	bne	x15,x0,288e <ee_printf+0x3a>
    2d7a:	b62d                	c.j	28a4 <ee_printf+0x50>
    2d7c:	c03a                	c.swsp	x14,0(x2)
    2d7e:	577d                	c.li	x14,-1
    2d80:	00e41563          	bne	x8,x14,2d8a <ee_printf+0x536>
    2d84:	0017e793          	ori	x15,x15,1
    2d88:	4421                	c.li	x8,8
    2d8a:	408c                	c.lw	x11,0(x9)
    2d8c:	871a                	c.mv	x14,x6
    2d8e:	0491                	c.addi	x9,4
    2d90:	86a2                	c.mv	x13,x8
    2d92:	4641                	c.li	x12,16
    2d94:	b959                	c.j	2a2a <ee_printf+0x1d6>
    2d96:	06c00613          	addi	x12,x0,108
    2d9a:	0004a283          	lw	x5,0(x9)
    2d9e:	0407e793          	ori	x15,x15,64
    2da2:	0491                	c.addi	x9,4
    2da4:	5ac69463          	bne	x13,x12,334c <ee_printf+0xaf8>
    2da8:	00006637          	lui	x12,0x6
    2dac:	62860613          	addi	x12,x12,1576 # 6628 <__clz_tab+0x618>
    2db0:	0002c683          	lbu	x13,0(x5)
    2db4:	03a00513          	addi	x10,x0,58
    2db8:	08a10323          	sb	x10,134(x2)
    2dbc:	0046d593          	srli	x11,x13,0x4
    2dc0:	8abd                	c.andi	x13,15
    2dc2:	95b2                	c.add	x11,x12
    2dc4:	96b2                	c.add	x13,x12
    2dc6:	0005c583          	lbu	x11,0(x11)
    2dca:	0006c683          	lbu	x13,0(x13)
    2dce:	8bc1                	c.andi	x15,16
    2dd0:	08b10223          	sb	x11,132(x2)
    2dd4:	08d102a3          	sb	x13,133(x2)
    2dd8:	0012c583          	lbu	x11,1(x5)
    2ddc:	08a104a3          	sb	x10,137(x2)
    2de0:	fff40693          	addi	x13,x8,-1
    2de4:	0045d313          	srli	x6,x11,0x4
    2de8:	89bd                	c.andi	x11,15
    2dea:	9332                	c.add	x6,x12
    2dec:	95b2                	c.add	x11,x12
    2dee:	00034303          	lbu	x6,0(x6)
    2df2:	0005c583          	lbu	x11,0(x11)
    2df6:	086103a3          	sb	x6,135(x2)
    2dfa:	08b10423          	sb	x11,136(x2)
    2dfe:	0022c583          	lbu	x11,2(x5)
    2e02:	08a10623          	sb	x10,140(x2)
    2e06:	0045d313          	srli	x6,x11,0x4
    2e0a:	89bd                	c.andi	x11,15
    2e0c:	9332                	c.add	x6,x12
    2e0e:	95b2                	c.add	x11,x12
    2e10:	00034303          	lbu	x6,0(x6)
    2e14:	0005c583          	lbu	x11,0(x11)
    2e18:	08610523          	sb	x6,138(x2)
    2e1c:	08b105a3          	sb	x11,139(x2)
    2e20:	0032c583          	lbu	x11,3(x5)
    2e24:	08a107a3          	sb	x10,143(x2)
    2e28:	0045d313          	srli	x6,x11,0x4
    2e2c:	89bd                	c.andi	x11,15
    2e2e:	9332                	c.add	x6,x12
    2e30:	95b2                	c.add	x11,x12
    2e32:	0005c583          	lbu	x11,0(x11)
    2e36:	00034303          	lbu	x6,0(x6)
    2e3a:	08b10723          	sb	x11,142(x2)
    2e3e:	086106a3          	sb	x6,141(x2)
    2e42:	0042c583          	lbu	x11,4(x5)
    2e46:	08a10923          	sb	x10,146(x2)
    2e4a:	0045d513          	srli	x10,x11,0x4
    2e4e:	89bd                	c.andi	x11,15
    2e50:	9532                	c.add	x10,x12
    2e52:	95b2                	c.add	x11,x12
    2e54:	00054503          	lbu	x10,0(x10)
    2e58:	0005c583          	lbu	x11,0(x11)
    2e5c:	08a10823          	sb	x10,144(x2)
    2e60:	08b108a3          	sb	x11,145(x2)
    2e64:	0052c583          	lbu	x11,5(x5)
    2e68:	0045d513          	srli	x10,x11,0x4
    2e6c:	9532                	c.add	x10,x12
    2e6e:	00054503          	lbu	x10,0(x10)
    2e72:	89bd                	c.andi	x11,15
    2e74:	962e                	c.add	x12,x11
    2e76:	08a109a3          	sb	x10,147(x2)
    2e7a:	00064603          	lbu	x12,0(x12)
    2e7e:	08c10a23          	sb	x12,148(x2)
    2e82:	42079863          	bne	x15,x0,32b2 <ee_printf+0xa5e>
    2e86:	47c5                	c.li	x15,17
    2e88:	4287d163          	bge	x15,x8,32aa <ee_printf+0xa56>
    2e8c:	fef40793          	addi	x15,x8,-17
    2e90:	863e                	c.mv	x12,x15
    2e92:	02000593          	addi	x11,x0,32
    2e96:	851e                	c.mv	x10,x7
    2e98:	c43a                	c.swsp	x14,8(x2)
    2e9a:	c03e                	c.swsp	x15,0(x2)
    2e9c:	695010ef          	jal	x1,4d30 <memset>
    2ea0:	4782                	c.lwsp	x15,0(x2)
    2ea2:	83aa                	c.mv	x7,x10
    2ea4:	4645                	c.li	x12,17
    2ea6:	014c                	c.addi4spn	x11,x2,132
    2ea8:	953e                	c.add	x10,x15
    2eaa:	c01e                	c.swsp	x7,0(x2)
    2eac:	563010ef          	jal	x1,4c0e <memcpy>
    2eb0:	4382                	c.lwsp	x7,0(x2)
    2eb2:	4722                	c.lwsp	x14,8(x2)
    2eb4:	00838633          	add	x12,x7,x8
    2eb8:	00274783          	lbu	x15,2(x14)
    2ebc:	00270313          	addi	x6,x14,2
    2ec0:	83b2                	c.mv	x7,x12
    2ec2:	9c0796e3          	bne	x15,x0,288e <ee_printf+0x3a>
    2ec6:	baf9                	c.j	28a4 <ee_printf+0x50>
    2ec8:	06c00613          	addi	x12,x0,108
    2ecc:	0004a283          	lw	x5,0(x9)
    2ed0:	0491                	c.addi	x9,4
    2ed2:	46c69d63          	bne	x13,x12,334c <ee_printf+0xaf8>
    2ed6:	000065b7          	lui	x11,0x6
    2eda:	60058613          	addi	x12,x11,1536 # 6600 <__clz_tab+0x5f0>
    2ede:	bdc9                	c.j	2db0 <ee_printf+0x55c>
    2ee0:	06c00713          	addi	x14,x0,108
    2ee4:	0027e793          	ori	x15,x15,2
    2ee8:	00448293          	addi	x5,x9,4
    2eec:	4629                	c.li	x12,10
    2eee:	b2e68ae3          	beq	x13,x14,2a22 <ee_printf+0x1ce>
    2ef2:	a621                	c.j	31fa <ee_printf+0x9a6>
    2ef4:	c03a                	c.swsp	x14,0(x2)
    2ef6:	4641                	c.li	x12,16
    2ef8:	b61d                	c.j	2a1e <ee_printf+0x1ca>
    2efa:	0004a283          	lw	x5,0(x9)
    2efe:	0491                	c.addi	x9,4
    2f00:	0002c603          	lbu	x12,0(x5)
    2f04:	38060b63          	beq	x12,x0,329a <ee_printf+0xa46>
    2f08:	06300693          	addi	x13,x0,99
    2f0c:	44c6d263          	bge	x13,x12,3350 <ee_printf+0xafc>
    2f10:	06400593          	addi	x11,x0,100
    2f14:	8532                	c.mv	x10,x12
    2f16:	cc1e                	c.swsp	x7,24(x2)
    2f18:	ca16                	c.swsp	x5,20(x2)
    2f1a:	c63a                	c.swsp	x14,12(x2)
    2f1c:	c83e                	c.swsp	x15,16(x2)
    2f1e:	c432                	c.swsp	x12,8(x2)
    2f20:	3cd010ef          	jal	x1,4aec <__divsi3>
    2f24:	000065b7          	lui	x11,0x6
    2f28:	60058793          	addi	x15,x11,1536 # 6600 <__clz_tab+0x5f0>
    2f2c:	4622                	c.lwsp	x12,8(x2)
    2f2e:	953e                	c.add	x10,x15
    2f30:	00054683          	lbu	x13,0(x10)
    2f34:	06400593          	addi	x11,x0,100
    2f38:	8532                	c.mv	x10,x12
    2f3a:	c03e                	c.swsp	x15,0(x2)
    2f3c:	08d10223          	sb	x13,132(x2)
    2f40:	405010ef          	jal	x1,4b44 <__modsi3>
    2f44:	45a9                	c.li	x11,10
    2f46:	c42a                	c.swsp	x10,8(x2)
    2f48:	3a5010ef          	jal	x1,4aec <__divsi3>
    2f4c:	4782                	c.lwsp	x15,0(x2)
    2f4e:	4622                	c.lwsp	x12,8(x2)
    2f50:	45a9                	c.li	x11,10
    2f52:	953e                	c.add	x10,x15
    2f54:	00054683          	lbu	x13,0(x10)
    2f58:	4791                	c.li	x15,4
    2f5a:	8532                	c.mv	x10,x12
    2f5c:	08d102a3          	sb	x13,133(x2)
    2f60:	c43e                	c.swsp	x15,8(x2)
    2f62:	3e3010ef          	jal	x1,4b44 <__modsi3>
    2f66:	4732                	c.lwsp	x14,12(x2)
    2f68:	47c2                	c.lwsp	x15,16(x2)
    2f6a:	42d2                	c.lwsp	x5,20(x2)
    2f6c:	43e2                	c.lwsp	x7,24(x2)
    2f6e:	862a                	c.mv	x12,x10
    2f70:	468d                	c.li	x13,3
    2f72:	4589                	c.li	x11,2
    2f74:	4502                	c.lwsp	x10,0(x2)
    2f76:	962a                	c.add	x12,x10
    2f78:	00064503          	lbu	x10,0(x12)
    2f7c:	0bd0                	c.addi4spn	x12,x2,468
    2f7e:	962e                	c.add	x12,x11
    2f80:	eaa60823          	sb	x10,-336(x12)
    2f84:	0bd0                	c.addi4spn	x12,x2,468
    2f86:	00d60333          	add	x6,x12,x13
    2f8a:	02e00613          	addi	x12,x0,46
    2f8e:	eac30823          	sb	x12,-336(x6)
    2f92:	0012c603          	lbu	x12,1(x5)
    2f96:	2e060963          	beq	x12,x0,3288 <ee_printf+0xa34>
    2f9a:	06300593          	addi	x11,x0,99
    2f9e:	4ac5d263          	bge	x11,x12,3442 <ee_printf+0xbee>
    2fa2:	06400593          	addi	x11,x0,100
    2fa6:	8532                	c.mv	x10,x12
    2fa8:	d21e                	c.swsp	x7,36(x2)
    2faa:	ce16                	c.swsp	x5,28(x2)
    2fac:	d01a                	c.swsp	x6,32(x2)
    2fae:	cc36                	c.swsp	x13,24(x2)
    2fb0:	ca3e                	c.swsp	x15,20(x2)
    2fb2:	c83a                	c.swsp	x14,16(x2)
    2fb4:	c632                	c.swsp	x12,12(x2)
    2fb6:	337010ef          	jal	x1,4aec <__divsi3>
    2fba:	4622                	c.lwsp	x12,8(x2)
    2fbc:	000065b7          	lui	x11,0x6
    2fc0:	60058793          	addi	x15,x11,1536 # 6600 <__clz_tab+0x5f0>
    2fc4:	953e                	c.add	x10,x15
    2fc6:	0bd4                	c.addi4spn	x13,x2,468
    2fc8:	00054703          	lbu	x14,0(x10)
    2fcc:	00c680b3          	add	x1,x13,x12
    2fd0:	4632                	c.lwsp	x12,12(x2)
    2fd2:	eae08823          	sb	x14,-336(x1)
    2fd6:	06400593          	addi	x11,x0,100
    2fda:	8532                	c.mv	x10,x12
    2fdc:	c03e                	c.swsp	x15,0(x2)
    2fde:	367010ef          	jal	x1,4b44 <__modsi3>
    2fe2:	45a9                	c.li	x11,10
    2fe4:	c42a                	c.swsp	x10,8(x2)
    2fe6:	307010ef          	jal	x1,4aec <__divsi3>
    2fea:	4782                	c.lwsp	x15,0(x2)
    2fec:	5302                	c.lwsp	x6,32(x2)
    2fee:	46e2                	c.lwsp	x13,24(x2)
    2ff0:	953e                	c.add	x10,x15
    2ff2:	00054603          	lbu	x12,0(x10)
    2ff6:	4522                	c.lwsp	x10,8(x2)
    2ff8:	00368793          	addi	x15,x13,3
    2ffc:	eac30923          	sb	x12,-334(x6)
    3000:	45a9                	c.li	x11,10
    3002:	c43e                	c.swsp	x15,8(x2)
    3004:	341010ef          	jal	x1,4b44 <__modsi3>
    3008:	4742                	c.lwsp	x14,16(x2)
    300a:	47d2                	c.lwsp	x15,20(x2)
    300c:	42f2                	c.lwsp	x5,28(x2)
    300e:	5392                	c.lwsp	x7,36(x2)
    3010:	862a                	c.mv	x12,x10
    3012:	4682                	c.lwsp	x13,0(x2)
    3014:	9636                	c.add	x12,x13
    3016:	46a2                	c.lwsp	x13,8(x2)
    3018:	00064583          	lbu	x11,0(x12)
    301c:	0bd0                	c.addi4spn	x12,x2,468
    301e:	9636                	c.add	x12,x13
    3020:	eab60823          	sb	x11,-336(x12)
    3024:	0685                	c.addi	x13,1
    3026:	0bd0                	c.addi4spn	x12,x2,468
    3028:	9636                	c.add	x12,x13
    302a:	85b2                	c.mv	x11,x12
    302c:	c432                	c.swsp	x12,8(x2)
    302e:	02e00613          	addi	x12,x0,46
    3032:	eac58823          	sb	x12,-336(x11)
    3036:	0022c603          	lbu	x12,2(x5)
    303a:	00168313          	addi	x6,x13,1
    303e:	22060d63          	beq	x12,x0,3278 <ee_printf+0xa24>
    3042:	06300593          	addi	x11,x0,99
    3046:	3ac5d463          	bge	x11,x12,33ee <ee_printf+0xb9a>
    304a:	06400593          	addi	x11,x0,100
    304e:	8532                	c.mv	x10,x12
    3050:	d21e                	c.swsp	x7,36(x2)
    3052:	d016                	c.swsp	x5,32(x2)
    3054:	cc36                	c.swsp	x13,24(x2)
    3056:	ce1a                	c.swsp	x6,28(x2)
    3058:	ca3e                	c.swsp	x15,20(x2)
    305a:	c83a                	c.swsp	x14,16(x2)
    305c:	c632                	c.swsp	x12,12(x2)
    305e:	28f010ef          	jal	x1,4aec <__divsi3>
    3062:	000065b7          	lui	x11,0x6
    3066:	60058793          	addi	x15,x11,1536 # 6600 <__clz_tab+0x5f0>
    306a:	953e                	c.add	x10,x15
    306c:	4372                	c.lwsp	x6,28(x2)
    306e:	00054083          	lbu	x1,0(x10)
    3072:	4632                	c.lwsp	x12,12(x2)
    3074:	0bd8                	c.addi4spn	x14,x2,468
    3076:	933a                	c.add	x6,x14
    3078:	ea130823          	sb	x1,-336(x6)
    307c:	8532                	c.mv	x10,x12
    307e:	06400593          	addi	x11,x0,100
    3082:	c03e                	c.swsp	x15,0(x2)
    3084:	2c1010ef          	jal	x1,4b44 <__modsi3>
    3088:	45a9                	c.li	x11,10
    308a:	c62a                	c.swsp	x10,12(x2)
    308c:	261010ef          	jal	x1,4aec <__divsi3>
    3090:	4782                	c.lwsp	x15,0(x2)
    3092:	4632                	c.lwsp	x12,12(x2)
    3094:	46e2                	c.lwsp	x13,24(x2)
    3096:	953e                	c.add	x10,x15
    3098:	00054303          	lbu	x6,0(x10)
    309c:	47a2                	c.lwsp	x15,8(x2)
    309e:	8532                	c.mv	x10,x12
    30a0:	45a9                	c.li	x11,10
    30a2:	ea678923          	sb	x6,-334(x15)
    30a6:	00368313          	addi	x6,x13,3
    30aa:	c41a                	c.swsp	x6,8(x2)
    30ac:	299010ef          	jal	x1,4b44 <__modsi3>
    30b0:	4322                	c.lwsp	x6,8(x2)
    30b2:	4742                	c.lwsp	x14,16(x2)
    30b4:	47d2                	c.lwsp	x15,20(x2)
    30b6:	5282                	c.lwsp	x5,32(x2)
    30b8:	5392                	c.lwsp	x7,36(x2)
    30ba:	862a                	c.mv	x12,x10
    30bc:	4682                	c.lwsp	x13,0(x2)
    30be:	9636                	c.add	x12,x13
    30c0:	00064583          	lbu	x11,0(x12)
    30c4:	0bd4                	c.addi4spn	x13,x2,468
    30c6:	00668633          	add	x12,x13,x6
    30ca:	eab60823          	sb	x11,-336(x12)
    30ce:	00130693          	addi	x13,x6,1
    30d2:	0bd0                	c.addi4spn	x12,x2,468
    30d4:	9636                	c.add	x12,x13
    30d6:	85b2                	c.mv	x11,x12
    30d8:	c432                	c.swsp	x12,8(x2)
    30da:	02e00613          	addi	x12,x0,46
    30de:	eac58823          	sb	x12,-336(x11)
    30e2:	0032c603          	lbu	x12,3(x5)
    30e6:	00168313          	addi	x6,x13,1
    30ea:	16060f63          	beq	x12,x0,3268 <ee_printf+0xa14>
    30ee:	06300593          	addi	x11,x0,99
    30f2:	2ac5d463          	bge	x11,x12,339a <ee_printf+0xb46>
    30f6:	06400593          	addi	x11,x0,100
    30fa:	8532                	c.mv	x10,x12
    30fc:	d01e                	c.swsp	x7,32(x2)
    30fe:	cc36                	c.swsp	x13,24(x2)
    3100:	ce1a                	c.swsp	x6,28(x2)
    3102:	ca3e                	c.swsp	x15,20(x2)
    3104:	c83a                	c.swsp	x14,16(x2)
    3106:	c632                	c.swsp	x12,12(x2)
    3108:	1e5010ef          	jal	x1,4aec <__divsi3>
    310c:	000065b7          	lui	x11,0x6
    3110:	60058793          	addi	x15,x11,1536 # 6600 <__clz_tab+0x5f0>
    3114:	953e                	c.add	x10,x15
    3116:	4372                	c.lwsp	x6,28(x2)
    3118:	00054083          	lbu	x1,0(x10)
    311c:	4632                	c.lwsp	x12,12(x2)
    311e:	0bd8                	c.addi4spn	x14,x2,468
    3120:	933a                	c.add	x6,x14
    3122:	ea130823          	sb	x1,-336(x6)
    3126:	8532                	c.mv	x10,x12
    3128:	06400593          	addi	x11,x0,100
    312c:	c03e                	c.swsp	x15,0(x2)
    312e:	217010ef          	jal	x1,4b44 <__modsi3>
    3132:	45a9                	c.li	x11,10
    3134:	c62a                	c.swsp	x10,12(x2)
    3136:	1b7010ef          	jal	x1,4aec <__divsi3>
    313a:	4782                	c.lwsp	x15,0(x2)
    313c:	4632                	c.lwsp	x12,12(x2)
    313e:	46e2                	c.lwsp	x13,24(x2)
    3140:	953e                	c.add	x10,x15
    3142:	00054303          	lbu	x6,0(x10)
    3146:	47a2                	c.lwsp	x15,8(x2)
    3148:	8532                	c.mv	x10,x12
    314a:	45a9                	c.li	x11,10
    314c:	ea678923          	sb	x6,-334(x15)
    3150:	00368313          	addi	x6,x13,3
    3154:	c41a                	c.swsp	x6,8(x2)
    3156:	1ef010ef          	jal	x1,4b44 <__modsi3>
    315a:	4322                	c.lwsp	x6,8(x2)
    315c:	4742                	c.lwsp	x14,16(x2)
    315e:	47d2                	c.lwsp	x15,20(x2)
    3160:	5382                	c.lwsp	x7,32(x2)
    3162:	862a                	c.mv	x12,x10
    3164:	4682                	c.lwsp	x13,0(x2)
    3166:	9636                	c.add	x12,x13
    3168:	00064583          	lbu	x11,0(x12)
    316c:	0bd4                	c.addi4spn	x13,x2,468
    316e:	00668633          	add	x12,x13,x6
    3172:	eab60823          	sb	x11,-336(x12)
    3176:	00130693          	addi	x13,x6,1
    317a:	8bc1                	c.andi	x15,16
    317c:	fff40313          	addi	x6,x8,-1
    3180:	eb95                	c.bnez	x15,31b4 <ee_printf+0x960>
    3182:	4886db63          	bge	x13,x8,3618 <ee_printf+0xdc4>
    3186:	40d407b3          	sub	x15,x8,x13
    318a:	851e                	c.mv	x10,x7
    318c:	863e                	c.mv	x12,x15
    318e:	02000593          	addi	x11,x0,32
    3192:	c81a                	c.swsp	x6,16(x2)
    3194:	c63a                	c.swsp	x14,12(x2)
    3196:	c436                	c.swsp	x13,8(x2)
    3198:	c03e                	c.swsp	x15,0(x2)
    319a:	397010ef          	jal	x1,4d30 <memset>
    319e:	46a2                	c.lwsp	x13,8(x2)
    31a0:	4342                	c.lwsp	x6,16(x2)
    31a2:	4782                	c.lwsp	x15,0(x2)
    31a4:	40868433          	sub	x8,x13,x8
    31a8:	4732                	c.lwsp	x14,12(x2)
    31aa:	941a                	c.add	x8,x6
    31ac:	00f503b3          	add	x7,x10,x15
    31b0:	fff40313          	addi	x6,x8,-1
    31b4:	8636                	c.mv	x12,x13
    31b6:	851e                	c.mv	x10,x7
    31b8:	014c                	c.addi4spn	x11,x2,132
    31ba:	c43a                	c.swsp	x14,8(x2)
    31bc:	c036                	c.swsp	x13,0(x2)
    31be:	c61a                	c.swsp	x6,12(x2)
    31c0:	24f010ef          	jal	x1,4c0e <memcpy>
    31c4:	4682                	c.lwsp	x13,0(x2)
    31c6:	4722                	c.lwsp	x14,8(x2)
    31c8:	00d50633          	add	x12,x10,x13
    31cc:	83b2                	c.mv	x7,x12
    31ce:	8686d2e3          	bge	x13,x8,2a32 <ee_printf+0x1de>
    31d2:	4332                	c.lwsp	x6,12(x2)
    31d4:	02000513          	addi	x10,x0,32
    31d8:	4585                	c.li	x11,1
    31da:	0385                	c.addi	x7,1
    31dc:	407587b3          	sub	x15,x11,x7
    31e0:	979a                	c.add	x15,x6
    31e2:	fea38fa3          	sb	x10,-1(x7)
    31e6:	97b2                	c.add	x15,x12
    31e8:	fef6c9e3          	blt	x13,x15,31da <ee_printf+0x986>
    31ec:	847ff06f          	jal	x0,2a32 <ee_printf+0x1de>
    31f0:	0027e793          	ori	x15,x15,2
    31f4:	00448293          	addi	x5,x9,4
    31f8:	c03a                	c.swsp	x14,0(x2)
    31fa:	408c                	c.lw	x11,0(x9)
    31fc:	4629                	c.li	x12,10
    31fe:	8496                	c.mv	x9,x5
    3200:	827ff06f          	jal	x0,2a26 <ee_printf+0x1d2>
    3204:	0004a283          	lw	x5,0(x9)
    3208:	0407e793          	ori	x15,x15,64
    320c:	0491                	c.addi	x9,4
    320e:	b9cd                	c.j	2f00 <ee_printf+0x6ac>
    3210:	85b6                	c.mv	x11,x13
    3212:	c03a                	c.swsp	x14,0(x2)
    3214:	02500793          	addi	x15,x0,37
    3218:	00138713          	addi	x14,x7,1
    321c:	0ef58f63          	beq	x11,x15,331a <ee_printf+0xac6>
    3220:	00f38023          	sb	x15,0(x7)
    3224:	4782                	c.lwsp	x15,0(x2)
    3226:	0007c583          	lbu	x11,0(x15)
    322a:	e5e5                	c.bnez	x11,3312 <ee_printf+0xabe>
    322c:	83ba                	c.mv	x7,x14
    322e:	e76ff06f          	jal	x0,28a4 <ee_printf+0x50>
    3232:	fff40313          	addi	x6,x8,-1
    3236:	2e875d63          	bge	x14,x8,3530 <ee_printf+0xcdc>
    323a:	40e407b3          	sub	x15,x8,x14
    323e:	851e                	c.mv	x10,x7
    3240:	863e                	c.mv	x12,x15
    3242:	02000593          	addi	x11,x0,32
    3246:	ca36                	c.swsp	x13,20(x2)
    3248:	c81a                	c.swsp	x6,16(x2)
    324a:	c63a                	c.swsp	x14,12(x2)
    324c:	c43e                	c.swsp	x15,8(x2)
    324e:	2e3010ef          	jal	x1,4d30 <memset>
    3252:	4732                	c.lwsp	x14,12(x2)
    3254:	47a2                	c.lwsp	x15,8(x2)
    3256:	4342                	c.lwsp	x6,16(x2)
    3258:	40870433          	sub	x8,x14,x8
    325c:	00f503b3          	add	x7,x10,x15
    3260:	941a                	c.add	x8,x6
    3262:	46d2                	c.lwsp	x13,20(x2)
    3264:	855ff06f          	jal	x0,2ab8 <ee_printf+0x264>
    3268:	0bd0                	c.addi4spn	x12,x2,468
    326a:	9332                	c.add	x6,x12
    326c:	03000613          	addi	x12,x0,48
    3270:	0689                	c.addi	x13,2
    3272:	eac30823          	sb	x12,-336(x6)
    3276:	b711                	c.j	317a <ee_printf+0x926>
    3278:	0bd0                	c.addi4spn	x12,x2,468
    327a:	9332                	c.add	x6,x12
    327c:	03000613          	addi	x12,x0,48
    3280:	0689                	c.addi	x13,2
    3282:	eac30823          	sb	x12,-336(x6)
    3286:	b5b1                	c.j	30d2 <ee_printf+0x87e>
    3288:	45a2                	c.lwsp	x11,8(x2)
    328a:	0bd0                	c.addi4spn	x12,x2,468
    328c:	0689                	c.addi	x13,2
    328e:	962e                	c.add	x12,x11
    3290:	03000593          	addi	x11,x0,48
    3294:	eab60823          	sb	x11,-336(x12)
    3298:	b379                	c.j	3026 <ee_printf+0x7d2>
    329a:	03000693          	addi	x13,x0,48
    329e:	08d10223          	sb	x13,132(x2)
    32a2:	4689                	c.li	x13,2
    32a4:	c436                	c.swsp	x13,8(x2)
    32a6:	4685                	c.li	x13,1
    32a8:	b9f1                	c.j	2f84 <ee_printf+0x730>
    32aa:	ffe40793          	addi	x15,x8,-2
    32ae:	8436                	c.mv	x8,x13
    32b0:	86be                	c.mv	x13,x15
    32b2:	4645                	c.li	x12,17
    32b4:	851e                	c.mv	x10,x7
    32b6:	014c                	c.addi4spn	x11,x2,132
    32b8:	c03a                	c.swsp	x14,0(x2)
    32ba:	c436                	c.swsp	x13,8(x2)
    32bc:	153010ef          	jal	x1,4c0e <memcpy>
    32c0:	47c5                	c.li	x15,17
    32c2:	83aa                	c.mv	x7,x10
    32c4:	01150613          	addi	x12,x10,17
    32c8:	4702                	c.lwsp	x14,0(x2)
    32ca:	be87d7e3          	bge	x15,x8,2eb8 <ee_printf+0x664>
    32ce:	46a2                	c.lwsp	x13,8(x2)
    32d0:	02000313          	addi	x6,x0,32
    32d4:	4549                	c.li	x10,18
    32d6:	45c5                	c.li	x11,17
    32d8:	0605                	c.addi	x12,1
    32da:	40c507b3          	sub	x15,x10,x12
    32de:	979e                	c.add	x15,x7
    32e0:	fe660fa3          	sb	x6,-1(x12)
    32e4:	97b6                	c.add	x15,x13
    32e6:	fef5c9e3          	blt	x11,x15,32d8 <ee_printf+0xa84>
    32ea:	b6f9                	c.j	2eb8 <ee_printf+0x664>
    32ec:	09dc                	c.addi4spn	x15,x2,212
    32ee:	83be                	c.mv	x7,x15
    32f0:	00038023          	sb	x0,0(x7)
    32f4:	0d414703          	lbu	x14,212(x2)
    32f8:	c23e                	c.swsp	x15,4(x2)
    32fa:	da071b63          	bne	x14,x0,28b0 <ee_printf+0x5c>
    32fe:	1dc12083          	lw	x1,476(x2)
    3302:	1d812403          	lw	x8,472(x2)
    3306:	1d412483          	lw	x9,468(x2)
    330a:	4501                	c.li	x10,0
    330c:	1f410113          	addi	x2,x2,500
    3310:	8082                	c.jr	x1
    3312:	00238793          	addi	x15,x7,2
    3316:	83ba                	c.mv	x7,x14
    3318:	873e                	c.mv	x14,x15
    331a:	4682                	c.lwsp	x13,0(x2)
    331c:	00b38023          	sb	x11,0(x7)
    3320:	83ba                	c.mv	x7,x14
    3322:	0016c783          	lbu	x15,1(x13)
    3326:	00168313          	addi	x6,x13,1
    332a:	d6079263          	bne	x15,x0,288e <ee_printf+0x3a>
    332e:	d76ff06f          	jal	x0,28a4 <ee_printf+0x50>
    3332:	0027e613          	ori	x12,x15,2
    3336:	0017f693          	andi	x13,x15,1
    333a:	8bc5                	c.andi	x15,17
    333c:	c432                	c.swsp	x12,8(x2)
    333e:	c63e                	c.swsp	x15,12(x2)
    3340:	38068863          	beq	x13,x0,36d0 <ee_printf+0xe7c>
    3344:	03000793          	addi	x15,x0,48
    3348:	d23e                	c.swsp	x15,36(x2)
    334a:	b849                	c.j	2bdc <ee_printf+0x388>
    334c:	4702                	c.lwsp	x14,0(x2)
    334e:	be4d                	c.j	2f00 <ee_printf+0x6ac>
    3350:	46a5                	c.li	x13,9
    3352:	16c6db63          	bge	x13,x12,34c8 <ee_printf+0xc74>
    3356:	45a9                	c.li	x11,10
    3358:	8532                	c.mv	x10,x12
    335a:	cc1e                	c.swsp	x7,24(x2)
    335c:	ca16                	c.swsp	x5,20(x2)
    335e:	c63a                	c.swsp	x14,12(x2)
    3360:	c83e                	c.swsp	x15,16(x2)
    3362:	c432                	c.swsp	x12,8(x2)
    3364:	788010ef          	jal	x1,4aec <__divsi3>
    3368:	000065b7          	lui	x11,0x6
    336c:	60058793          	addi	x15,x11,1536 # 6600 <__clz_tab+0x5f0>
    3370:	4622                	c.lwsp	x12,8(x2)
    3372:	953e                	c.add	x10,x15
    3374:	00054683          	lbu	x13,0(x10)
    3378:	c03e                	c.swsp	x15,0(x2)
    337a:	45a9                	c.li	x11,10
    337c:	478d                	c.li	x15,3
    337e:	8532                	c.mv	x10,x12
    3380:	08d10223          	sb	x13,132(x2)
    3384:	c43e                	c.swsp	x15,8(x2)
    3386:	7be010ef          	jal	x1,4b44 <__modsi3>
    338a:	862a                	c.mv	x12,x10
    338c:	4689                	c.li	x13,2
    338e:	4585                	c.li	x11,1
    3390:	4732                	c.lwsp	x14,12(x2)
    3392:	47c2                	c.lwsp	x15,16(x2)
    3394:	42d2                	c.lwsp	x5,20(x2)
    3396:	43e2                	c.lwsp	x7,24(x2)
    3398:	bef1                	c.j	2f74 <ee_printf+0x720>
    339a:	45a5                	c.li	x11,9
    339c:	12c5d063          	bge	x11,x12,34bc <ee_printf+0xc68>
    33a0:	45a9                	c.li	x11,10
    33a2:	8532                	c.mv	x10,x12
    33a4:	ce1e                	c.swsp	x7,28(x2)
    33a6:	c63a                	c.swsp	x14,12(x2)
    33a8:	cc1a                	c.swsp	x6,24(x2)
    33aa:	ca36                	c.swsp	x13,20(x2)
    33ac:	c83e                	c.swsp	x15,16(x2)
    33ae:	c432                	c.swsp	x12,8(x2)
    33b0:	73c010ef          	jal	x1,4aec <__divsi3>
    33b4:	000065b7          	lui	x11,0x6
    33b8:	60058793          	addi	x15,x11,1536 # 6600 <__clz_tab+0x5f0>
    33bc:	953e                	c.add	x10,x15
    33be:	4362                	c.lwsp	x6,24(x2)
    33c0:	4622                	c.lwsp	x12,8(x2)
    33c2:	00054283          	lbu	x5,0(x10)
    33c6:	46d2                	c.lwsp	x13,20(x2)
    33c8:	c03e                	c.swsp	x15,0(x2)
    33ca:	0bdc                	c.addi4spn	x15,x2,468
    33cc:	006780b3          	add	x1,x15,x6
    33d0:	8532                	c.mv	x10,x12
    33d2:	00268313          	addi	x6,x13,2
    33d6:	45a9                	c.li	x11,10
    33d8:	ea508823          	sb	x5,-336(x1)
    33dc:	c41a                	c.swsp	x6,8(x2)
    33de:	766010ef          	jal	x1,4b44 <__modsi3>
    33e2:	862a                	c.mv	x12,x10
    33e4:	4322                	c.lwsp	x6,8(x2)
    33e6:	4732                	c.lwsp	x14,12(x2)
    33e8:	47c2                	c.lwsp	x15,16(x2)
    33ea:	43f2                	c.lwsp	x7,28(x2)
    33ec:	bba5                	c.j	3164 <ee_printf+0x910>
    33ee:	45a5                	c.li	x11,9
    33f0:	0ec5d663          	bge	x11,x12,34dc <ee_printf+0xc88>
    33f4:	45a9                	c.li	x11,10
    33f6:	8532                	c.mv	x10,x12
    33f8:	d01e                	c.swsp	x7,32(x2)
    33fa:	ce16                	c.swsp	x5,28(x2)
    33fc:	c63a                	c.swsp	x14,12(x2)
    33fe:	cc1a                	c.swsp	x6,24(x2)
    3400:	ca36                	c.swsp	x13,20(x2)
    3402:	c83e                	c.swsp	x15,16(x2)
    3404:	c432                	c.swsp	x12,8(x2)
    3406:	6e6010ef          	jal	x1,4aec <__divsi3>
    340a:	000065b7          	lui	x11,0x6
    340e:	60058793          	addi	x15,x11,1536 # 6600 <__clz_tab+0x5f0>
    3412:	953e                	c.add	x10,x15
    3414:	4362                	c.lwsp	x6,24(x2)
    3416:	4622                	c.lwsp	x12,8(x2)
    3418:	00054083          	lbu	x1,0(x10)
    341c:	46d2                	c.lwsp	x13,20(x2)
    341e:	c03e                	c.swsp	x15,0(x2)
    3420:	0bdc                	c.addi4spn	x15,x2,468
    3422:	933e                	c.add	x6,x15
    3424:	0689                	c.addi	x13,2
    3426:	8532                	c.mv	x10,x12
    3428:	ea130823          	sb	x1,-336(x6)
    342c:	45a9                	c.li	x11,10
    342e:	c436                	c.swsp	x13,8(x2)
    3430:	714010ef          	jal	x1,4b44 <__modsi3>
    3434:	862a                	c.mv	x12,x10
    3436:	4322                	c.lwsp	x6,8(x2)
    3438:	4732                	c.lwsp	x14,12(x2)
    343a:	47c2                	c.lwsp	x15,16(x2)
    343c:	42f2                	c.lwsp	x5,28(x2)
    343e:	5382                	c.lwsp	x7,32(x2)
    3440:	b9b5                	c.j	30bc <ee_printf+0x868>
    3442:	45a5                	c.li	x11,9
    3444:	0ac5d263          	bge	x11,x12,34e8 <ee_printf+0xc94>
    3448:	45a9                	c.li	x11,10
    344a:	8532                	c.mv	x10,x12
    344c:	d01e                	c.swsp	x7,32(x2)
    344e:	ce16                	c.swsp	x5,28(x2)
    3450:	cc36                	c.swsp	x13,24(x2)
    3452:	ca3e                	c.swsp	x15,20(x2)
    3454:	c83a                	c.swsp	x14,16(x2)
    3456:	c632                	c.swsp	x12,12(x2)
    3458:	694010ef          	jal	x1,4aec <__divsi3>
    345c:	000065b7          	lui	x11,0x6
    3460:	60058793          	addi	x15,x11,1536 # 6600 <__clz_tab+0x5f0>
    3464:	4722                	c.lwsp	x14,8(x2)
    3466:	953e                	c.add	x10,x15
    3468:	00054083          	lbu	x1,0(x10)
    346c:	4632                	c.lwsp	x12,12(x2)
    346e:	46e2                	c.lwsp	x13,24(x2)
    3470:	c03e                	c.swsp	x15,0(x2)
    3472:	0bdc                	c.addi4spn	x15,x2,468
    3474:	00e78333          	add	x6,x15,x14
    3478:	0689                	c.addi	x13,2
    347a:	8532                	c.mv	x10,x12
    347c:	45a9                	c.li	x11,10
    347e:	ea130823          	sb	x1,-336(x6)
    3482:	c436                	c.swsp	x13,8(x2)
    3484:	6c0010ef          	jal	x1,4b44 <__modsi3>
    3488:	862a                	c.mv	x12,x10
    348a:	4742                	c.lwsp	x14,16(x2)
    348c:	47d2                	c.lwsp	x15,20(x2)
    348e:	42f2                	c.lwsp	x5,28(x2)
    3490:	5382                	c.lwsp	x7,32(x2)
    3492:	b641                	c.j	3012 <ee_printf+0x7be>
    3494:	000066b7          	lui	x13,0x6
    3498:	66468693          	addi	x13,x13,1636 # 6664 <__clz_tab+0x654>
    349c:	dfcff06f          	jal	x0,2a98 <ee_printf+0x244>
    34a0:	06805763          	bge	x0,x8,350e <ee_printf+0xcba>
    34a4:	8622                	c.mv	x12,x8
    34a6:	851e                	c.mv	x10,x7
    34a8:	02000593          	addi	x11,x0,32
    34ac:	93a2                	c.add	x7,x8
    34ae:	c41e                	c.swsp	x7,8(x2)
    34b0:	081010ef          	jal	x1,4d30 <memset>
    34b4:	547d                	c.li	x8,-1
    34b6:	43a2                	c.lwsp	x7,8(x2)
    34b8:	ec8ff06f          	jal	x0,2b80 <ee_printf+0x32c>
    34bc:	000066b7          	lui	x13,0x6
    34c0:	60068693          	addi	x13,x13,1536 # 6600 <__clz_tab+0x5f0>
    34c4:	c036                	c.swsp	x13,0(x2)
    34c6:	b979                	c.j	3164 <ee_printf+0x910>
    34c8:	00006537          	lui	x10,0x6
    34cc:	4689                	c.li	x13,2
    34ce:	60050513          	addi	x10,x10,1536 # 6600 <__clz_tab+0x5f0>
    34d2:	c436                	c.swsp	x13,8(x2)
    34d4:	4581                	c.li	x11,0
    34d6:	4685                	c.li	x13,1
    34d8:	c02a                	c.swsp	x10,0(x2)
    34da:	bc69                	c.j	2f74 <ee_printf+0x720>
    34dc:	000066b7          	lui	x13,0x6
    34e0:	60068693          	addi	x13,x13,1536 # 6600 <__clz_tab+0x5f0>
    34e4:	c036                	c.swsp	x13,0(x2)
    34e6:	bed9                	c.j	30bc <ee_printf+0x868>
    34e8:	000065b7          	lui	x11,0x6
    34ec:	60058693          	addi	x13,x11,1536 # 6600 <__clz_tab+0x5f0>
    34f0:	c036                	c.swsp	x13,0(x2)
    34f2:	b605                	c.j	3012 <ee_printf+0x7be>
    34f4:	02b00793          	addi	x15,x0,43
    34f8:	147d                	c.addi	x8,-1
    34fa:	d03e                	c.swsp	x15,32(x2)
    34fc:	f14ff06f          	jal	x0,2c10 <ee_printf+0x3bc>
    3500:	0107f713          	andi	x14,x15,16
    3504:	d20707e3          	beq	x14,x0,3232 <ee_printf+0x9de>
    3508:	4701                	c.li	x14,0
    350a:	e3aff06f          	jal	x0,2b44 <ee_printf+0x2f0>
    350e:	409c                	c.lw	x15,0(x9)
    3510:	00138713          	addi	x14,x7,1
    3514:	0491                	c.addi	x9,4
    3516:	00f38023          	sb	x15,0(x7)
    351a:	4782                	c.lwsp	x15,0(x2)
    351c:	00178313          	addi	x6,x15,1
    3520:	4782                	c.lwsp	x15,0(x2)
    3522:	83ba                	c.mv	x7,x14
    3524:	0017c783          	lbu	x15,1(x15)
    3528:	b6079363          	bne	x15,x0,288e <ee_printf+0x3a>
    352c:	b78ff06f          	jal	x0,28a4 <ee_printf+0x50>
    3530:	841a                	c.mv	x8,x6
    3532:	d86ff06f          	jal	x0,2ab8 <ee_printf+0x264>
    3536:	03000793          	addi	x15,x0,48
